
rtarget:     file format elf64-x86-64


Disassembly of section .init:

0000000000400c48 <_init>:
  400c48:	48 83 ec 08          	sub    $0x8,%rsp
  400c4c:	48 8b 05 a5 43 20 00 	mov    0x2043a5(%rip),%rax        # 604ff8 <_DYNAMIC+0x1d0>
  400c53:	48 85 c0             	test   %rax,%rax
  400c56:	74 05                	je     400c5d <_init+0x15>
  400c58:	e8 43 02 00 00       	callq  400ea0 <socket@plt+0x10>
  400c5d:	48 83 c4 08          	add    $0x8,%rsp
  400c61:	c3                   	retq   

Disassembly of section .plt:

0000000000400c70 <strcasecmp@plt-0x10>:
  400c70:	ff 35 92 43 20 00    	pushq  0x204392(%rip)        # 605008 <_GLOBAL_OFFSET_TABLE_+0x8>
  400c76:	ff 25 94 43 20 00    	jmpq   *0x204394(%rip)        # 605010 <_GLOBAL_OFFSET_TABLE_+0x10>
  400c7c:	0f 1f 40 00          	nopl   0x0(%rax)

0000000000400c80 <strcasecmp@plt>:
  400c80:	ff 25 92 43 20 00    	jmpq   *0x204392(%rip)        # 605018 <_GLOBAL_OFFSET_TABLE_+0x18>
  400c86:	68 00 00 00 00       	pushq  $0x0
  400c8b:	e9 e0 ff ff ff       	jmpq   400c70 <_init+0x28>

0000000000400c90 <__errno_location@plt>:
  400c90:	ff 25 8a 43 20 00    	jmpq   *0x20438a(%rip)        # 605020 <_GLOBAL_OFFSET_TABLE_+0x20>
  400c96:	68 01 00 00 00       	pushq  $0x1
  400c9b:	e9 d0 ff ff ff       	jmpq   400c70 <_init+0x28>

0000000000400ca0 <srandom@plt>:
  400ca0:	ff 25 82 43 20 00    	jmpq   *0x204382(%rip)        # 605028 <_GLOBAL_OFFSET_TABLE_+0x28>
  400ca6:	68 02 00 00 00       	pushq  $0x2
  400cab:	e9 c0 ff ff ff       	jmpq   400c70 <_init+0x28>

0000000000400cb0 <strncmp@plt>:
  400cb0:	ff 25 7a 43 20 00    	jmpq   *0x20437a(%rip)        # 605030 <_GLOBAL_OFFSET_TABLE_+0x30>
  400cb6:	68 03 00 00 00       	pushq  $0x3
  400cbb:	e9 b0 ff ff ff       	jmpq   400c70 <_init+0x28>

0000000000400cc0 <strcpy@plt>:
  400cc0:	ff 25 72 43 20 00    	jmpq   *0x204372(%rip)        # 605038 <_GLOBAL_OFFSET_TABLE_+0x38>
  400cc6:	68 04 00 00 00       	pushq  $0x4
  400ccb:	e9 a0 ff ff ff       	jmpq   400c70 <_init+0x28>

0000000000400cd0 <puts@plt>:
  400cd0:	ff 25 6a 43 20 00    	jmpq   *0x20436a(%rip)        # 605040 <_GLOBAL_OFFSET_TABLE_+0x40>
  400cd6:	68 05 00 00 00       	pushq  $0x5
  400cdb:	e9 90 ff ff ff       	jmpq   400c70 <_init+0x28>

0000000000400ce0 <write@plt>:
  400ce0:	ff 25 62 43 20 00    	jmpq   *0x204362(%rip)        # 605048 <_GLOBAL_OFFSET_TABLE_+0x48>
  400ce6:	68 06 00 00 00       	pushq  $0x6
  400ceb:	e9 80 ff ff ff       	jmpq   400c70 <_init+0x28>

0000000000400cf0 <__stack_chk_fail@plt>:
  400cf0:	ff 25 5a 43 20 00    	jmpq   *0x20435a(%rip)        # 605050 <_GLOBAL_OFFSET_TABLE_+0x50>
  400cf6:	68 07 00 00 00       	pushq  $0x7
  400cfb:	e9 70 ff ff ff       	jmpq   400c70 <_init+0x28>

0000000000400d00 <mmap@plt>:
  400d00:	ff 25 52 43 20 00    	jmpq   *0x204352(%rip)        # 605058 <_GLOBAL_OFFSET_TABLE_+0x58>
  400d06:	68 08 00 00 00       	pushq  $0x8
  400d0b:	e9 60 ff ff ff       	jmpq   400c70 <_init+0x28>

0000000000400d10 <memset@plt>:
  400d10:	ff 25 4a 43 20 00    	jmpq   *0x20434a(%rip)        # 605060 <_GLOBAL_OFFSET_TABLE_+0x60>
  400d16:	68 09 00 00 00       	pushq  $0x9
  400d1b:	e9 50 ff ff ff       	jmpq   400c70 <_init+0x28>

0000000000400d20 <alarm@plt>:
  400d20:	ff 25 42 43 20 00    	jmpq   *0x204342(%rip)        # 605068 <_GLOBAL_OFFSET_TABLE_+0x68>
  400d26:	68 0a 00 00 00       	pushq  $0xa
  400d2b:	e9 40 ff ff ff       	jmpq   400c70 <_init+0x28>

0000000000400d30 <close@plt>:
  400d30:	ff 25 3a 43 20 00    	jmpq   *0x20433a(%rip)        # 605070 <_GLOBAL_OFFSET_TABLE_+0x70>
  400d36:	68 0b 00 00 00       	pushq  $0xb
  400d3b:	e9 30 ff ff ff       	jmpq   400c70 <_init+0x28>

0000000000400d40 <read@plt>:
  400d40:	ff 25 32 43 20 00    	jmpq   *0x204332(%rip)        # 605078 <_GLOBAL_OFFSET_TABLE_+0x78>
  400d46:	68 0c 00 00 00       	pushq  $0xc
  400d4b:	e9 20 ff ff ff       	jmpq   400c70 <_init+0x28>

0000000000400d50 <__libc_start_main@plt>:
  400d50:	ff 25 2a 43 20 00    	jmpq   *0x20432a(%rip)        # 605080 <_GLOBAL_OFFSET_TABLE_+0x80>
  400d56:	68 0d 00 00 00       	pushq  $0xd
  400d5b:	e9 10 ff ff ff       	jmpq   400c70 <_init+0x28>

0000000000400d60 <signal@plt>:
  400d60:	ff 25 22 43 20 00    	jmpq   *0x204322(%rip)        # 605088 <_GLOBAL_OFFSET_TABLE_+0x88>
  400d66:	68 0e 00 00 00       	pushq  $0xe
  400d6b:	e9 00 ff ff ff       	jmpq   400c70 <_init+0x28>

0000000000400d70 <gethostbyname@plt>:
  400d70:	ff 25 1a 43 20 00    	jmpq   *0x20431a(%rip)        # 605090 <_GLOBAL_OFFSET_TABLE_+0x90>
  400d76:	68 0f 00 00 00       	pushq  $0xf
  400d7b:	e9 f0 fe ff ff       	jmpq   400c70 <_init+0x28>

0000000000400d80 <__memmove_chk@plt>:
  400d80:	ff 25 12 43 20 00    	jmpq   *0x204312(%rip)        # 605098 <_GLOBAL_OFFSET_TABLE_+0x98>
  400d86:	68 10 00 00 00       	pushq  $0x10
  400d8b:	e9 e0 fe ff ff       	jmpq   400c70 <_init+0x28>

0000000000400d90 <strtol@plt>:
  400d90:	ff 25 0a 43 20 00    	jmpq   *0x20430a(%rip)        # 6050a0 <_GLOBAL_OFFSET_TABLE_+0xa0>
  400d96:	68 11 00 00 00       	pushq  $0x11
  400d9b:	e9 d0 fe ff ff       	jmpq   400c70 <_init+0x28>

0000000000400da0 <memcpy@plt>:
  400da0:	ff 25 02 43 20 00    	jmpq   *0x204302(%rip)        # 6050a8 <_GLOBAL_OFFSET_TABLE_+0xa8>
  400da6:	68 12 00 00 00       	pushq  $0x12
  400dab:	e9 c0 fe ff ff       	jmpq   400c70 <_init+0x28>

0000000000400db0 <time@plt>:
  400db0:	ff 25 fa 42 20 00    	jmpq   *0x2042fa(%rip)        # 6050b0 <_GLOBAL_OFFSET_TABLE_+0xb0>
  400db6:	68 13 00 00 00       	pushq  $0x13
  400dbb:	e9 b0 fe ff ff       	jmpq   400c70 <_init+0x28>

0000000000400dc0 <random@plt>:
  400dc0:	ff 25 f2 42 20 00    	jmpq   *0x2042f2(%rip)        # 6050b8 <_GLOBAL_OFFSET_TABLE_+0xb8>
  400dc6:	68 14 00 00 00       	pushq  $0x14
  400dcb:	e9 a0 fe ff ff       	jmpq   400c70 <_init+0x28>

0000000000400dd0 <_IO_getc@plt>:
  400dd0:	ff 25 ea 42 20 00    	jmpq   *0x2042ea(%rip)        # 6050c0 <_GLOBAL_OFFSET_TABLE_+0xc0>
  400dd6:	68 15 00 00 00       	pushq  $0x15
  400ddb:	e9 90 fe ff ff       	jmpq   400c70 <_init+0x28>

0000000000400de0 <__isoc99_sscanf@plt>:
  400de0:	ff 25 e2 42 20 00    	jmpq   *0x2042e2(%rip)        # 6050c8 <_GLOBAL_OFFSET_TABLE_+0xc8>
  400de6:	68 16 00 00 00       	pushq  $0x16
  400deb:	e9 80 fe ff ff       	jmpq   400c70 <_init+0x28>

0000000000400df0 <munmap@plt>:
  400df0:	ff 25 da 42 20 00    	jmpq   *0x2042da(%rip)        # 6050d0 <_GLOBAL_OFFSET_TABLE_+0xd0>
  400df6:	68 17 00 00 00       	pushq  $0x17
  400dfb:	e9 70 fe ff ff       	jmpq   400c70 <_init+0x28>

0000000000400e00 <__printf_chk@plt>:
  400e00:	ff 25 d2 42 20 00    	jmpq   *0x2042d2(%rip)        # 6050d8 <_GLOBAL_OFFSET_TABLE_+0xd8>
  400e06:	68 18 00 00 00       	pushq  $0x18
  400e0b:	e9 60 fe ff ff       	jmpq   400c70 <_init+0x28>

0000000000400e10 <fopen@plt>:
  400e10:	ff 25 ca 42 20 00    	jmpq   *0x2042ca(%rip)        # 6050e0 <_GLOBAL_OFFSET_TABLE_+0xe0>
  400e16:	68 19 00 00 00       	pushq  $0x19
  400e1b:	e9 50 fe ff ff       	jmpq   400c70 <_init+0x28>

0000000000400e20 <getopt@plt>:
  400e20:	ff 25 c2 42 20 00    	jmpq   *0x2042c2(%rip)        # 6050e8 <_GLOBAL_OFFSET_TABLE_+0xe8>
  400e26:	68 1a 00 00 00       	pushq  $0x1a
  400e2b:	e9 40 fe ff ff       	jmpq   400c70 <_init+0x28>

0000000000400e30 <strtoul@plt>:
  400e30:	ff 25 ba 42 20 00    	jmpq   *0x2042ba(%rip)        # 6050f0 <_GLOBAL_OFFSET_TABLE_+0xf0>
  400e36:	68 1b 00 00 00       	pushq  $0x1b
  400e3b:	e9 30 fe ff ff       	jmpq   400c70 <_init+0x28>

0000000000400e40 <gethostname@plt>:
  400e40:	ff 25 b2 42 20 00    	jmpq   *0x2042b2(%rip)        # 6050f8 <_GLOBAL_OFFSET_TABLE_+0xf8>
  400e46:	68 1c 00 00 00       	pushq  $0x1c
  400e4b:	e9 20 fe ff ff       	jmpq   400c70 <_init+0x28>

0000000000400e50 <exit@plt>:
  400e50:	ff 25 aa 42 20 00    	jmpq   *0x2042aa(%rip)        # 605100 <_GLOBAL_OFFSET_TABLE_+0x100>
  400e56:	68 1d 00 00 00       	pushq  $0x1d
  400e5b:	e9 10 fe ff ff       	jmpq   400c70 <_init+0x28>

0000000000400e60 <connect@plt>:
  400e60:	ff 25 a2 42 20 00    	jmpq   *0x2042a2(%rip)        # 605108 <_GLOBAL_OFFSET_TABLE_+0x108>
  400e66:	68 1e 00 00 00       	pushq  $0x1e
  400e6b:	e9 00 fe ff ff       	jmpq   400c70 <_init+0x28>

0000000000400e70 <__fprintf_chk@plt>:
  400e70:	ff 25 9a 42 20 00    	jmpq   *0x20429a(%rip)        # 605110 <_GLOBAL_OFFSET_TABLE_+0x110>
  400e76:	68 1f 00 00 00       	pushq  $0x1f
  400e7b:	e9 f0 fd ff ff       	jmpq   400c70 <_init+0x28>

0000000000400e80 <__sprintf_chk@plt>:
  400e80:	ff 25 92 42 20 00    	jmpq   *0x204292(%rip)        # 605118 <_GLOBAL_OFFSET_TABLE_+0x118>
  400e86:	68 20 00 00 00       	pushq  $0x20
  400e8b:	e9 e0 fd ff ff       	jmpq   400c70 <_init+0x28>

0000000000400e90 <socket@plt>:
  400e90:	ff 25 8a 42 20 00    	jmpq   *0x20428a(%rip)        # 605120 <_GLOBAL_OFFSET_TABLE_+0x120>
  400e96:	68 21 00 00 00       	pushq  $0x21
  400e9b:	e9 d0 fd ff ff       	jmpq   400c70 <_init+0x28>

Disassembly of section .plt.got:

0000000000400ea0 <.plt.got>:
  400ea0:	ff 25 52 41 20 00    	jmpq   *0x204152(%rip)        # 604ff8 <_DYNAMIC+0x1d0>
  400ea6:	66 90                	xchg   %ax,%ax

Disassembly of section .text:

0000000000400eb0 <_start>:
  400eb0:	31 ed                	xor    %ebp,%ebp
  400eb2:	49 89 d1             	mov    %rdx,%r9
  400eb5:	5e                   	pop    %rsi
  400eb6:	48 89 e2             	mov    %rsp,%rdx
  400eb9:	48 83 e4 f0          	and    $0xfffffffffffffff0,%rsp
  400ebd:	50                   	push   %rax
  400ebe:	54                   	push   %rsp
  400ebf:	49 c7 c0 70 30 40 00 	mov    $0x403070,%r8
  400ec6:	48 c7 c1 00 30 40 00 	mov    $0x403000,%rcx
  400ecd:	48 c7 c7 b5 11 40 00 	mov    $0x4011b5,%rdi
  400ed4:	e8 77 fe ff ff       	callq  400d50 <__libc_start_main@plt>
  400ed9:	f4                   	hlt    
  400eda:	66 0f 1f 44 00 00    	nopw   0x0(%rax,%rax,1)

0000000000400ee0 <deregister_tm_clones>:
  400ee0:	b8 b7 54 60 00       	mov    $0x6054b7,%eax
  400ee5:	55                   	push   %rbp
  400ee6:	48 2d b0 54 60 00    	sub    $0x6054b0,%rax
  400eec:	48 83 f8 0e          	cmp    $0xe,%rax
  400ef0:	48 89 e5             	mov    %rsp,%rbp
  400ef3:	76 1b                	jbe    400f10 <deregister_tm_clones+0x30>
  400ef5:	b8 00 00 00 00       	mov    $0x0,%eax
  400efa:	48 85 c0             	test   %rax,%rax
  400efd:	74 11                	je     400f10 <deregister_tm_clones+0x30>
  400eff:	5d                   	pop    %rbp
  400f00:	bf b0 54 60 00       	mov    $0x6054b0,%edi
  400f05:	ff e0                	jmpq   *%rax
  400f07:	66 0f 1f 84 00 00 00 	nopw   0x0(%rax,%rax,1)
  400f0e:	00 00 
  400f10:	5d                   	pop    %rbp
  400f11:	c3                   	retq   
  400f12:	0f 1f 40 00          	nopl   0x0(%rax)
  400f16:	66 2e 0f 1f 84 00 00 	nopw   %cs:0x0(%rax,%rax,1)
  400f1d:	00 00 00 

0000000000400f20 <register_tm_clones>:
  400f20:	be b0 54 60 00       	mov    $0x6054b0,%esi
  400f25:	55                   	push   %rbp
  400f26:	48 81 ee b0 54 60 00 	sub    $0x6054b0,%rsi
  400f2d:	48 c1 fe 03          	sar    $0x3,%rsi
  400f31:	48 89 e5             	mov    %rsp,%rbp
  400f34:	48 89 f0             	mov    %rsi,%rax
  400f37:	48 c1 e8 3f          	shr    $0x3f,%rax
  400f3b:	48 01 c6             	add    %rax,%rsi
  400f3e:	48 d1 fe             	sar    %rsi
  400f41:	74 15                	je     400f58 <register_tm_clones+0x38>
  400f43:	b8 00 00 00 00       	mov    $0x0,%eax
  400f48:	48 85 c0             	test   %rax,%rax
  400f4b:	74 0b                	je     400f58 <register_tm_clones+0x38>
  400f4d:	5d                   	pop    %rbp
  400f4e:	bf b0 54 60 00       	mov    $0x6054b0,%edi
  400f53:	ff e0                	jmpq   *%rax
  400f55:	0f 1f 00             	nopl   (%rax)
  400f58:	5d                   	pop    %rbp
  400f59:	c3                   	retq   
  400f5a:	66 0f 1f 44 00 00    	nopw   0x0(%rax,%rax,1)

0000000000400f60 <__do_global_dtors_aux>:
  400f60:	80 3d 81 45 20 00 00 	cmpb   $0x0,0x204581(%rip)        # 6054e8 <completed.7585>
  400f67:	75 11                	jne    400f7a <__do_global_dtors_aux+0x1a>
  400f69:	55                   	push   %rbp
  400f6a:	48 89 e5             	mov    %rsp,%rbp
  400f6d:	e8 6e ff ff ff       	callq  400ee0 <deregister_tm_clones>
  400f72:	5d                   	pop    %rbp
  400f73:	c6 05 6e 45 20 00 01 	movb   $0x1,0x20456e(%rip)        # 6054e8 <completed.7585>
  400f7a:	f3 c3                	repz retq 
  400f7c:	0f 1f 40 00          	nopl   0x0(%rax)

0000000000400f80 <frame_dummy>:
  400f80:	bf 20 4e 60 00       	mov    $0x604e20,%edi
  400f85:	48 83 3f 00          	cmpq   $0x0,(%rdi)
  400f89:	75 05                	jne    400f90 <frame_dummy+0x10>
  400f8b:	eb 93                	jmp    400f20 <register_tm_clones>
  400f8d:	0f 1f 00             	nopl   (%rax)
  400f90:	b8 00 00 00 00       	mov    $0x0,%eax
  400f95:	48 85 c0             	test   %rax,%rax
  400f98:	74 f1                	je     400f8b <frame_dummy+0xb>
  400f9a:	55                   	push   %rbp
  400f9b:	48 89 e5             	mov    %rsp,%rbp
  400f9e:	ff d0                	callq  *%rax
  400fa0:	5d                   	pop    %rbp
  400fa1:	e9 7a ff ff ff       	jmpq   400f20 <register_tm_clones>

0000000000400fa6 <usage>:
  400fa6:	48 83 ec 08          	sub    $0x8,%rsp
  400faa:	48 89 fa             	mov    %rdi,%rdx
  400fad:	83 3d 74 45 20 00 00 	cmpl   $0x0,0x204574(%rip)        # 605528 <is_checker>
  400fb4:	74 3e                	je     400ff4 <usage+0x4e>
  400fb6:	be 88 30 40 00       	mov    $0x403088,%esi
  400fbb:	bf 01 00 00 00       	mov    $0x1,%edi
  400fc0:	b8 00 00 00 00       	mov    $0x0,%eax
  400fc5:	e8 36 fe ff ff       	callq  400e00 <__printf_chk@plt>
  400fca:	bf c0 30 40 00       	mov    $0x4030c0,%edi
  400fcf:	e8 fc fc ff ff       	callq  400cd0 <puts@plt>
  400fd4:	bf 38 32 40 00       	mov    $0x403238,%edi
  400fd9:	e8 f2 fc ff ff       	callq  400cd0 <puts@plt>
  400fde:	bf e8 30 40 00       	mov    $0x4030e8,%edi
  400fe3:	e8 e8 fc ff ff       	callq  400cd0 <puts@plt>
  400fe8:	bf 52 32 40 00       	mov    $0x403252,%edi
  400fed:	e8 de fc ff ff       	callq  400cd0 <puts@plt>
  400ff2:	eb 32                	jmp    401026 <usage+0x80>
  400ff4:	be 6e 32 40 00       	mov    $0x40326e,%esi
  400ff9:	bf 01 00 00 00       	mov    $0x1,%edi
  400ffe:	b8 00 00 00 00       	mov    $0x0,%eax
  401003:	e8 f8 fd ff ff       	callq  400e00 <__printf_chk@plt>
  401008:	bf 10 31 40 00       	mov    $0x403110,%edi
  40100d:	e8 be fc ff ff       	callq  400cd0 <puts@plt>
  401012:	bf 38 31 40 00       	mov    $0x403138,%edi
  401017:	e8 b4 fc ff ff       	callq  400cd0 <puts@plt>
  40101c:	bf 8c 32 40 00       	mov    $0x40328c,%edi
  401021:	e8 aa fc ff ff       	callq  400cd0 <puts@plt>
  401026:	bf 00 00 00 00       	mov    $0x0,%edi
  40102b:	e8 20 fe ff ff       	callq  400e50 <exit@plt>

0000000000401030 <initialize_target>:
  401030:	55                   	push   %rbp
  401031:	53                   	push   %rbx
  401032:	48 81 ec 18 21 00 00 	sub    $0x2118,%rsp
  401039:	89 f5                	mov    %esi,%ebp
  40103b:	64 48 8b 04 25 28 00 	mov    %fs:0x28,%rax
  401042:	00 00 
  401044:	48 89 84 24 08 21 00 	mov    %rax,0x2108(%rsp)
  40104b:	00 
  40104c:	31 c0                	xor    %eax,%eax
  40104e:	89 3d c4 44 20 00    	mov    %edi,0x2044c4(%rip)        # 605518 <check_level>
  401054:	8b 3d 0e 41 20 00    	mov    0x20410e(%rip),%edi        # 605168 <target_id>
  40105a:	e8 7d 1f 00 00       	callq  402fdc <gencookie>
  40105f:	89 05 bf 44 20 00    	mov    %eax,0x2044bf(%rip)        # 605524 <cookie>
  401065:	89 c7                	mov    %eax,%edi
  401067:	e8 70 1f 00 00       	callq  402fdc <gencookie>
  40106c:	89 05 ae 44 20 00    	mov    %eax,0x2044ae(%rip)        # 605520 <authkey>
  401072:	8b 05 f0 40 20 00    	mov    0x2040f0(%rip),%eax        # 605168 <target_id>
  401078:	8d 78 01             	lea    0x1(%rax),%edi
  40107b:	e8 20 fc ff ff       	callq  400ca0 <srandom@plt>
  401080:	e8 3b fd ff ff       	callq  400dc0 <random@plt>
  401085:	89 c7                	mov    %eax,%edi
  401087:	e8 03 03 00 00       	callq  40138f <scramble>
  40108c:	89 c3                	mov    %eax,%ebx
  40108e:	85 ed                	test   %ebp,%ebp
  401090:	74 18                	je     4010aa <initialize_target+0x7a>
  401092:	bf 00 00 00 00       	mov    $0x0,%edi
  401097:	e8 14 fd ff ff       	callq  400db0 <time@plt>
  40109c:	89 c7                	mov    %eax,%edi
  40109e:	e8 fd fb ff ff       	callq  400ca0 <srandom@plt>
  4010a3:	e8 18 fd ff ff       	callq  400dc0 <random@plt>
  4010a8:	eb 05                	jmp    4010af <initialize_target+0x7f>
  4010aa:	b8 00 00 00 00       	mov    $0x0,%eax
  4010af:	01 c3                	add    %eax,%ebx
  4010b1:	0f b7 db             	movzwl %bx,%ebx
  4010b4:	8d 04 dd 00 01 00 00 	lea    0x100(,%rbx,8),%eax
  4010bb:	89 c0                	mov    %eax,%eax
  4010bd:	48 89 05 dc 43 20 00 	mov    %rax,0x2043dc(%rip)        # 6054a0 <buf_offset>
  4010c4:	c6 05 7d 50 20 00 72 	movb   $0x72,0x20507d(%rip)        # 606148 <target_prefix>
  4010cb:	83 3d d6 43 20 00 00 	cmpl   $0x0,0x2043d6(%rip)        # 6054a8 <notify>
  4010d2:	0f 84 bb 00 00 00    	je     401193 <initialize_target+0x163>
  4010d8:	83 3d 49 44 20 00 00 	cmpl   $0x0,0x204449(%rip)        # 605528 <is_checker>
  4010df:	0f 85 ae 00 00 00    	jne    401193 <initialize_target+0x163>
  4010e5:	be 00 01 00 00       	mov    $0x100,%esi
  4010ea:	48 89 e7             	mov    %rsp,%rdi
  4010ed:	e8 4e fd ff ff       	callq  400e40 <gethostname@plt>
  4010f2:	85 c0                	test   %eax,%eax
  4010f4:	74 25                	je     40111b <initialize_target+0xeb>
  4010f6:	bf 68 31 40 00       	mov    $0x403168,%edi
  4010fb:	e8 d0 fb ff ff       	callq  400cd0 <puts@plt>
  401100:	bf 08 00 00 00       	mov    $0x8,%edi
  401105:	e8 46 fd ff ff       	callq  400e50 <exit@plt>
  40110a:	48 89 e6             	mov    %rsp,%rsi
  40110d:	e8 6e fb ff ff       	callq  400c80 <strcasecmp@plt>
  401112:	85 c0                	test   %eax,%eax
  401114:	74 21                	je     401137 <initialize_target+0x107>
  401116:	83 c3 01             	add    $0x1,%ebx
  401119:	eb 05                	jmp    401120 <initialize_target+0xf0>
  40111b:	bb 00 00 00 00       	mov    $0x0,%ebx
  401120:	48 63 c3             	movslq %ebx,%rax
  401123:	48 8b 3c c5 80 51 60 	mov    0x605180(,%rax,8),%rdi
  40112a:	00 
  40112b:	48 85 ff             	test   %rdi,%rdi
  40112e:	75 da                	jne    40110a <initialize_target+0xda>
  401130:	b8 00 00 00 00       	mov    $0x0,%eax
  401135:	eb 05                	jmp    40113c <initialize_target+0x10c>
  401137:	b8 01 00 00 00       	mov    $0x1,%eax
  40113c:	85 c0                	test   %eax,%eax
  40113e:	75 1c                	jne    40115c <initialize_target+0x12c>
  401140:	48 89 e2             	mov    %rsp,%rdx
  401143:	be a0 31 40 00       	mov    $0x4031a0,%esi
  401148:	bf 01 00 00 00       	mov    $0x1,%edi
  40114d:	e8 ae fc ff ff       	callq  400e00 <__printf_chk@plt>
  401152:	bf 08 00 00 00       	mov    $0x8,%edi
  401157:	e8 f4 fc ff ff       	callq  400e50 <exit@plt>
  40115c:	48 8d bc 24 00 01 00 	lea    0x100(%rsp),%rdi
  401163:	00 
  401164:	e8 dd 1b 00 00       	callq  402d46 <init_driver>
  401169:	85 c0                	test   %eax,%eax
  40116b:	79 26                	jns    401193 <initialize_target+0x163>
  40116d:	48 8d 94 24 00 01 00 	lea    0x100(%rsp),%rdx
  401174:	00 
  401175:	be e0 31 40 00       	mov    $0x4031e0,%esi
  40117a:	bf 01 00 00 00       	mov    $0x1,%edi
  40117f:	b8 00 00 00 00       	mov    $0x0,%eax
  401184:	e8 77 fc ff ff       	callq  400e00 <__printf_chk@plt>
  401189:	bf 08 00 00 00       	mov    $0x8,%edi
  40118e:	e8 bd fc ff ff       	callq  400e50 <exit@plt>
  401193:	48 8b 84 24 08 21 00 	mov    0x2108(%rsp),%rax
  40119a:	00 
  40119b:	64 48 33 04 25 28 00 	xor    %fs:0x28,%rax
  4011a2:	00 00 
  4011a4:	74 05                	je     4011ab <initialize_target+0x17b>
  4011a6:	e8 45 fb ff ff       	callq  400cf0 <__stack_chk_fail@plt>
  4011ab:	48 81 c4 18 21 00 00 	add    $0x2118,%rsp
  4011b2:	5b                   	pop    %rbx
  4011b3:	5d                   	pop    %rbp
  4011b4:	c3                   	retq   

00000000004011b5 <main>:
  4011b5:	41 56                	push   %r14
  4011b7:	41 55                	push   %r13
  4011b9:	41 54                	push   %r12
  4011bb:	55                   	push   %rbp
  4011bc:	53                   	push   %rbx
  4011bd:	41 89 fc             	mov    %edi,%r12d
  4011c0:	48 89 f3             	mov    %rsi,%rbx
  4011c3:	be 81 20 40 00       	mov    $0x402081,%esi
  4011c8:	bf 0b 00 00 00       	mov    $0xb,%edi
  4011cd:	e8 8e fb ff ff       	callq  400d60 <signal@plt>
  4011d2:	be 33 20 40 00       	mov    $0x402033,%esi
  4011d7:	bf 07 00 00 00       	mov    $0x7,%edi
  4011dc:	e8 7f fb ff ff       	callq  400d60 <signal@plt>
  4011e1:	be cf 20 40 00       	mov    $0x4020cf,%esi
  4011e6:	bf 04 00 00 00       	mov    $0x4,%edi
  4011eb:	e8 70 fb ff ff       	callq  400d60 <signal@plt>
  4011f0:	83 3d 31 43 20 00 00 	cmpl   $0x0,0x204331(%rip)        # 605528 <is_checker>
  4011f7:	74 20                	je     401219 <main+0x64>
  4011f9:	be 1d 21 40 00       	mov    $0x40211d,%esi
  4011fe:	bf 0e 00 00 00       	mov    $0xe,%edi
  401203:	e8 58 fb ff ff       	callq  400d60 <signal@plt>
  401208:	bf 05 00 00 00       	mov    $0x5,%edi
  40120d:	e8 0e fb ff ff       	callq  400d20 <alarm@plt>
  401212:	bd aa 32 40 00       	mov    $0x4032aa,%ebp
  401217:	eb 05                	jmp    40121e <main+0x69>
  401219:	bd a5 32 40 00       	mov    $0x4032a5,%ebp
  40121e:	48 8b 05 9b 42 20 00 	mov    0x20429b(%rip),%rax        # 6054c0 <stdin@@GLIBC_2.2.5>
  401225:	48 89 05 e4 42 20 00 	mov    %rax,0x2042e4(%rip)        # 605510 <infile>
  40122c:	41 bd 00 00 00 00    	mov    $0x0,%r13d
  401232:	41 be 00 00 00 00    	mov    $0x0,%r14d
  401238:	e9 c6 00 00 00       	jmpq   401303 <main+0x14e>
  40123d:	83 e8 61             	sub    $0x61,%eax
  401240:	3c 10                	cmp    $0x10,%al
  401242:	0f 87 9c 00 00 00    	ja     4012e4 <main+0x12f>
  401248:	0f b6 c0             	movzbl %al,%eax
  40124b:	ff 24 c5 f0 32 40 00 	jmpq   *0x4032f0(,%rax,8)
  401252:	48 8b 3b             	mov    (%rbx),%rdi
  401255:	e8 4c fd ff ff       	callq  400fa6 <usage>
  40125a:	be 55 35 40 00       	mov    $0x403555,%esi
  40125f:	48 8b 3d 62 42 20 00 	mov    0x204262(%rip),%rdi        # 6054c8 <optarg@@GLIBC_2.2.5>
  401266:	e8 a5 fb ff ff       	callq  400e10 <fopen@plt>
  40126b:	48 89 05 9e 42 20 00 	mov    %rax,0x20429e(%rip)        # 605510 <infile>
  401272:	48 85 c0             	test   %rax,%rax
  401275:	0f 85 88 00 00 00    	jne    401303 <main+0x14e>
  40127b:	48 8b 0d 46 42 20 00 	mov    0x204246(%rip),%rcx        # 6054c8 <optarg@@GLIBC_2.2.5>
  401282:	ba b2 32 40 00       	mov    $0x4032b2,%edx
  401287:	be 01 00 00 00       	mov    $0x1,%esi
  40128c:	48 8b 3d 4d 42 20 00 	mov    0x20424d(%rip),%rdi        # 6054e0 <stderr@@GLIBC_2.2.5>
  401293:	e8 d8 fb ff ff       	callq  400e70 <__fprintf_chk@plt>
  401298:	b8 01 00 00 00       	mov    $0x1,%eax
  40129d:	e9 e4 00 00 00       	jmpq   401386 <main+0x1d1>
  4012a2:	ba 10 00 00 00       	mov    $0x10,%edx
  4012a7:	be 00 00 00 00       	mov    $0x0,%esi
  4012ac:	48 8b 3d 15 42 20 00 	mov    0x204215(%rip),%rdi        # 6054c8 <optarg@@GLIBC_2.2.5>
  4012b3:	e8 78 fb ff ff       	callq  400e30 <strtoul@plt>
  4012b8:	41 89 c6             	mov    %eax,%r14d
  4012bb:	eb 46                	jmp    401303 <main+0x14e>
  4012bd:	ba 0a 00 00 00       	mov    $0xa,%edx
  4012c2:	be 00 00 00 00       	mov    $0x0,%esi
  4012c7:	48 8b 3d fa 41 20 00 	mov    0x2041fa(%rip),%rdi        # 6054c8 <optarg@@GLIBC_2.2.5>
  4012ce:	e8 bd fa ff ff       	callq  400d90 <strtol@plt>
  4012d3:	41 89 c5             	mov    %eax,%r13d
  4012d6:	eb 2b                	jmp    401303 <main+0x14e>
  4012d8:	c7 05 c6 41 20 00 00 	movl   $0x0,0x2041c6(%rip)        # 6054a8 <notify>
  4012df:	00 00 00 
  4012e2:	eb 1f                	jmp    401303 <main+0x14e>
  4012e4:	0f be d2             	movsbl %dl,%edx
  4012e7:	be cf 32 40 00       	mov    $0x4032cf,%esi
  4012ec:	bf 01 00 00 00       	mov    $0x1,%edi
  4012f1:	b8 00 00 00 00       	mov    $0x0,%eax
  4012f6:	e8 05 fb ff ff       	callq  400e00 <__printf_chk@plt>
  4012fb:	48 8b 3b             	mov    (%rbx),%rdi
  4012fe:	e8 a3 fc ff ff       	callq  400fa6 <usage>
  401303:	48 89 ea             	mov    %rbp,%rdx
  401306:	48 89 de             	mov    %rbx,%rsi
  401309:	44 89 e7             	mov    %r12d,%edi
  40130c:	e8 0f fb ff ff       	callq  400e20 <getopt@plt>
  401311:	89 c2                	mov    %eax,%edx
  401313:	3c ff                	cmp    $0xff,%al
  401315:	0f 85 22 ff ff ff    	jne    40123d <main+0x88>
  40131b:	be 01 00 00 00       	mov    $0x1,%esi
  401320:	44 89 ef             	mov    %r13d,%edi
  401323:	e8 08 fd ff ff       	callq  401030 <initialize_target>
  401328:	83 3d f9 41 20 00 00 	cmpl   $0x0,0x2041f9(%rip)        # 605528 <is_checker>
  40132f:	74 2a                	je     40135b <main+0x1a6>
  401331:	44 3b 35 e8 41 20 00 	cmp    0x2041e8(%rip),%r14d        # 605520 <authkey>
  401338:	74 21                	je     40135b <main+0x1a6>
  40133a:	44 89 f2             	mov    %r14d,%edx
  40133d:	be 08 32 40 00       	mov    $0x403208,%esi
  401342:	bf 01 00 00 00       	mov    $0x1,%edi
  401347:	b8 00 00 00 00       	mov    $0x0,%eax
  40134c:	e8 af fa ff ff       	callq  400e00 <__printf_chk@plt>
  401351:	b8 00 00 00 00       	mov    $0x0,%eax
  401356:	e8 74 09 00 00       	callq  401ccf <check_fail>
  40135b:	8b 15 c3 41 20 00    	mov    0x2041c3(%rip),%edx        # 605524 <cookie>
  401361:	be e2 32 40 00       	mov    $0x4032e2,%esi
  401366:	bf 01 00 00 00       	mov    $0x1,%edi
  40136b:	b8 00 00 00 00       	mov    $0x0,%eax
  401370:	e8 8b fa ff ff       	callq  400e00 <__printf_chk@plt>
  401375:	48 8b 3d 24 41 20 00 	mov    0x204124(%rip),%rdi        # 6054a0 <buf_offset>
  40137c:	e8 ef 0d 00 00       	callq  402170 <launch>
  401381:	b8 00 00 00 00       	mov    $0x0,%eax
  401386:	5b                   	pop    %rbx
  401387:	5d                   	pop    %rbp
  401388:	41 5c                	pop    %r12
  40138a:	41 5d                	pop    %r13
  40138c:	41 5e                	pop    %r14
  40138e:	c3                   	retq   

000000000040138f <scramble>:
  40138f:	48 83 ec 38          	sub    $0x38,%rsp
  401393:	64 48 8b 04 25 28 00 	mov    %fs:0x28,%rax
  40139a:	00 00 
  40139c:	48 89 44 24 28       	mov    %rax,0x28(%rsp)
  4013a1:	31 c0                	xor    %eax,%eax
  4013a3:	eb 10                	jmp    4013b5 <scramble+0x26>
  4013a5:	69 d0 dc 58 00 00    	imul   $0x58dc,%eax,%edx
  4013ab:	01 fa                	add    %edi,%edx
  4013ad:	89 c1                	mov    %eax,%ecx
  4013af:	89 14 8c             	mov    %edx,(%rsp,%rcx,4)
  4013b2:	83 c0 01             	add    $0x1,%eax
  4013b5:	83 f8 09             	cmp    $0x9,%eax
  4013b8:	76 eb                	jbe    4013a5 <scramble+0x16>
  4013ba:	8b 44 24 20          	mov    0x20(%rsp),%eax
  4013be:	69 c0 39 3a 00 00    	imul   $0x3a39,%eax,%eax
  4013c4:	89 44 24 20          	mov    %eax,0x20(%rsp)
  4013c8:	8b 44 24 14          	mov    0x14(%rsp),%eax
  4013cc:	69 c0 95 d1 00 00    	imul   $0xd195,%eax,%eax
  4013d2:	89 44 24 14          	mov    %eax,0x14(%rsp)
  4013d6:	8b 44 24 14          	mov    0x14(%rsp),%eax
  4013da:	69 c0 88 99 00 00    	imul   $0x9988,%eax,%eax
  4013e0:	89 44 24 14          	mov    %eax,0x14(%rsp)
  4013e4:	8b 44 24 18          	mov    0x18(%rsp),%eax
  4013e8:	69 c0 21 6d 00 00    	imul   $0x6d21,%eax,%eax
  4013ee:	89 44 24 18          	mov    %eax,0x18(%rsp)
  4013f2:	8b 44 24 1c          	mov    0x1c(%rsp),%eax
  4013f6:	69 c0 b1 cf 00 00    	imul   $0xcfb1,%eax,%eax
  4013fc:	89 44 24 1c          	mov    %eax,0x1c(%rsp)
  401400:	8b 44 24 1c          	mov    0x1c(%rsp),%eax
  401404:	69 c0 a1 eb 00 00    	imul   $0xeba1,%eax,%eax
  40140a:	89 44 24 1c          	mov    %eax,0x1c(%rsp)
  40140e:	8b 04 24             	mov    (%rsp),%eax
  401411:	69 c0 08 7c 00 00    	imul   $0x7c08,%eax,%eax
  401417:	89 04 24             	mov    %eax,(%rsp)
  40141a:	8b 44 24 18          	mov    0x18(%rsp),%eax
  40141e:	69 c0 97 05 00 00    	imul   $0x597,%eax,%eax
  401424:	89 44 24 18          	mov    %eax,0x18(%rsp)
  401428:	8b 44 24 14          	mov    0x14(%rsp),%eax
  40142c:	69 c0 18 94 00 00    	imul   $0x9418,%eax,%eax
  401432:	89 44 24 14          	mov    %eax,0x14(%rsp)
  401436:	8b 44 24 08          	mov    0x8(%rsp),%eax
  40143a:	69 c0 02 7b 00 00    	imul   $0x7b02,%eax,%eax
  401440:	89 44 24 08          	mov    %eax,0x8(%rsp)
  401444:	8b 44 24 08          	mov    0x8(%rsp),%eax
  401448:	69 c0 d1 dc 00 00    	imul   $0xdcd1,%eax,%eax
  40144e:	89 44 24 08          	mov    %eax,0x8(%rsp)
  401452:	8b 44 24 18          	mov    0x18(%rsp),%eax
  401456:	69 c0 4e f7 00 00    	imul   $0xf74e,%eax,%eax
  40145c:	89 44 24 18          	mov    %eax,0x18(%rsp)
  401460:	8b 44 24 10          	mov    0x10(%rsp),%eax
  401464:	69 c0 e7 65 00 00    	imul   $0x65e7,%eax,%eax
  40146a:	89 44 24 10          	mov    %eax,0x10(%rsp)
  40146e:	8b 44 24 24          	mov    0x24(%rsp),%eax
  401472:	69 c0 8f bb 00 00    	imul   $0xbb8f,%eax,%eax
  401478:	89 44 24 24          	mov    %eax,0x24(%rsp)
  40147c:	8b 44 24 10          	mov    0x10(%rsp),%eax
  401480:	69 c0 08 b0 00 00    	imul   $0xb008,%eax,%eax
  401486:	89 44 24 10          	mov    %eax,0x10(%rsp)
  40148a:	8b 44 24 24          	mov    0x24(%rsp),%eax
  40148e:	69 c0 30 5d 00 00    	imul   $0x5d30,%eax,%eax
  401494:	89 44 24 24          	mov    %eax,0x24(%rsp)
  401498:	8b 44 24 14          	mov    0x14(%rsp),%eax
  40149c:	69 c0 dc 19 00 00    	imul   $0x19dc,%eax,%eax
  4014a2:	89 44 24 14          	mov    %eax,0x14(%rsp)
  4014a6:	8b 44 24 20          	mov    0x20(%rsp),%eax
  4014aa:	69 c0 89 97 00 00    	imul   $0x9789,%eax,%eax
  4014b0:	89 44 24 20          	mov    %eax,0x20(%rsp)
  4014b4:	8b 44 24 18          	mov    0x18(%rsp),%eax
  4014b8:	69 c0 9c a4 00 00    	imul   $0xa49c,%eax,%eax
  4014be:	89 44 24 18          	mov    %eax,0x18(%rsp)
  4014c2:	8b 44 24 04          	mov    0x4(%rsp),%eax
  4014c6:	69 c0 06 6e 00 00    	imul   $0x6e06,%eax,%eax
  4014cc:	89 44 24 04          	mov    %eax,0x4(%rsp)
  4014d0:	8b 44 24 08          	mov    0x8(%rsp),%eax
  4014d4:	69 c0 37 ae 00 00    	imul   $0xae37,%eax,%eax
  4014da:	89 44 24 08          	mov    %eax,0x8(%rsp)
  4014de:	8b 44 24 1c          	mov    0x1c(%rsp),%eax
  4014e2:	69 c0 6c 7c 00 00    	imul   $0x7c6c,%eax,%eax
  4014e8:	89 44 24 1c          	mov    %eax,0x1c(%rsp)
  4014ec:	8b 44 24 10          	mov    0x10(%rsp),%eax
  4014f0:	69 c0 34 92 00 00    	imul   $0x9234,%eax,%eax
  4014f6:	89 44 24 10          	mov    %eax,0x10(%rsp)
  4014fa:	8b 44 24 08          	mov    0x8(%rsp),%eax
  4014fe:	69 c0 d5 d9 00 00    	imul   $0xd9d5,%eax,%eax
  401504:	89 44 24 08          	mov    %eax,0x8(%rsp)
  401508:	8b 44 24 0c          	mov    0xc(%rsp),%eax
  40150c:	69 c0 59 c0 00 00    	imul   $0xc059,%eax,%eax
  401512:	89 44 24 0c          	mov    %eax,0xc(%rsp)
  401516:	8b 44 24 10          	mov    0x10(%rsp),%eax
  40151a:	69 c0 30 fc 00 00    	imul   $0xfc30,%eax,%eax
  401520:	89 44 24 10          	mov    %eax,0x10(%rsp)
  401524:	8b 04 24             	mov    (%rsp),%eax
  401527:	69 c0 d6 3a 00 00    	imul   $0x3ad6,%eax,%eax
  40152d:	89 04 24             	mov    %eax,(%rsp)
  401530:	8b 44 24 24          	mov    0x24(%rsp),%eax
  401534:	69 c0 0c 69 00 00    	imul   $0x690c,%eax,%eax
  40153a:	89 44 24 24          	mov    %eax,0x24(%rsp)
  40153e:	8b 44 24 14          	mov    0x14(%rsp),%eax
  401542:	69 c0 0a ec 00 00    	imul   $0xec0a,%eax,%eax
  401548:	89 44 24 14          	mov    %eax,0x14(%rsp)
  40154c:	8b 44 24 20          	mov    0x20(%rsp),%eax
  401550:	69 c0 10 a5 00 00    	imul   $0xa510,%eax,%eax
  401556:	89 44 24 20          	mov    %eax,0x20(%rsp)
  40155a:	8b 44 24 20          	mov    0x20(%rsp),%eax
  40155e:	69 c0 23 43 00 00    	imul   $0x4323,%eax,%eax
  401564:	89 44 24 20          	mov    %eax,0x20(%rsp)
  401568:	8b 44 24 14          	mov    0x14(%rsp),%eax
  40156c:	69 c0 53 86 00 00    	imul   $0x8653,%eax,%eax
  401572:	89 44 24 14          	mov    %eax,0x14(%rsp)
  401576:	8b 44 24 18          	mov    0x18(%rsp),%eax
  40157a:	69 c0 05 31 00 00    	imul   $0x3105,%eax,%eax
  401580:	89 44 24 18          	mov    %eax,0x18(%rsp)
  401584:	8b 44 24 1c          	mov    0x1c(%rsp),%eax
  401588:	69 c0 63 10 00 00    	imul   $0x1063,%eax,%eax
  40158e:	89 44 24 1c          	mov    %eax,0x1c(%rsp)
  401592:	8b 04 24             	mov    (%rsp),%eax
  401595:	69 c0 86 22 00 00    	imul   $0x2286,%eax,%eax
  40159b:	89 04 24             	mov    %eax,(%rsp)
  40159e:	8b 44 24 20          	mov    0x20(%rsp),%eax
  4015a2:	69 c0 ee 49 00 00    	imul   $0x49ee,%eax,%eax
  4015a8:	89 44 24 20          	mov    %eax,0x20(%rsp)
  4015ac:	8b 44 24 04          	mov    0x4(%rsp),%eax
  4015b0:	69 c0 12 d8 00 00    	imul   $0xd812,%eax,%eax
  4015b6:	89 44 24 04          	mov    %eax,0x4(%rsp)
  4015ba:	8b 44 24 20          	mov    0x20(%rsp),%eax
  4015be:	69 c0 fd fa 00 00    	imul   $0xfafd,%eax,%eax
  4015c4:	89 44 24 20          	mov    %eax,0x20(%rsp)
  4015c8:	8b 44 24 0c          	mov    0xc(%rsp),%eax
  4015cc:	69 c0 5f 48 00 00    	imul   $0x485f,%eax,%eax
  4015d2:	89 44 24 0c          	mov    %eax,0xc(%rsp)
  4015d6:	8b 44 24 18          	mov    0x18(%rsp),%eax
  4015da:	69 c0 92 90 00 00    	imul   $0x9092,%eax,%eax
  4015e0:	89 44 24 18          	mov    %eax,0x18(%rsp)
  4015e4:	8b 44 24 20          	mov    0x20(%rsp),%eax
  4015e8:	69 c0 aa 29 00 00    	imul   $0x29aa,%eax,%eax
  4015ee:	89 44 24 20          	mov    %eax,0x20(%rsp)
  4015f2:	8b 44 24 10          	mov    0x10(%rsp),%eax
  4015f6:	69 c0 e2 a5 00 00    	imul   $0xa5e2,%eax,%eax
  4015fc:	89 44 24 10          	mov    %eax,0x10(%rsp)
  401600:	8b 44 24 08          	mov    0x8(%rsp),%eax
  401604:	89 c2                	mov    %eax,%edx
  401606:	c1 e2 06             	shl    $0x6,%edx
  401609:	c1 e0 0f             	shl    $0xf,%eax
  40160c:	01 d0                	add    %edx,%eax
  40160e:	89 44 24 08          	mov    %eax,0x8(%rsp)
  401612:	8b 44 24 18          	mov    0x18(%rsp),%eax
  401616:	69 c0 3d 05 00 00    	imul   $0x53d,%eax,%eax
  40161c:	89 44 24 18          	mov    %eax,0x18(%rsp)
  401620:	8b 44 24 08          	mov    0x8(%rsp),%eax
  401624:	69 c0 8a 33 00 00    	imul   $0x338a,%eax,%eax
  40162a:	89 44 24 08          	mov    %eax,0x8(%rsp)
  40162e:	8b 44 24 04          	mov    0x4(%rsp),%eax
  401632:	69 c0 5c 08 00 00    	imul   $0x85c,%eax,%eax
  401638:	89 44 24 04          	mov    %eax,0x4(%rsp)
  40163c:	8b 44 24 14          	mov    0x14(%rsp),%eax
  401640:	69 c0 8e ac 00 00    	imul   $0xac8e,%eax,%eax
  401646:	89 44 24 14          	mov    %eax,0x14(%rsp)
  40164a:	8b 44 24 20          	mov    0x20(%rsp),%eax
  40164e:	69 c0 ad d3 00 00    	imul   $0xd3ad,%eax,%eax
  401654:	89 44 24 20          	mov    %eax,0x20(%rsp)
  401658:	8b 44 24 10          	mov    0x10(%rsp),%eax
  40165c:	69 c0 8c ac 00 00    	imul   $0xac8c,%eax,%eax
  401662:	89 44 24 10          	mov    %eax,0x10(%rsp)
  401666:	8b 44 24 18          	mov    0x18(%rsp),%eax
  40166a:	69 c0 35 b3 00 00    	imul   $0xb335,%eax,%eax
  401670:	89 44 24 18          	mov    %eax,0x18(%rsp)
  401674:	8b 44 24 20          	mov    0x20(%rsp),%eax
  401678:	69 c0 7a 62 00 00    	imul   $0x627a,%eax,%eax
  40167e:	89 44 24 20          	mov    %eax,0x20(%rsp)
  401682:	8b 04 24             	mov    (%rsp),%eax
  401685:	69 c0 d0 9f 00 00    	imul   $0x9fd0,%eax,%eax
  40168b:	89 04 24             	mov    %eax,(%rsp)
  40168e:	8b 44 24 08          	mov    0x8(%rsp),%eax
  401692:	69 c0 7f c3 00 00    	imul   $0xc37f,%eax,%eax
  401698:	89 44 24 08          	mov    %eax,0x8(%rsp)
  40169c:	8b 44 24 18          	mov    0x18(%rsp),%eax
  4016a0:	69 c0 d2 a4 00 00    	imul   $0xa4d2,%eax,%eax
  4016a6:	89 44 24 18          	mov    %eax,0x18(%rsp)
  4016aa:	8b 44 24 10          	mov    0x10(%rsp),%eax
  4016ae:	69 c0 a1 6f 00 00    	imul   $0x6fa1,%eax,%eax
  4016b4:	89 44 24 10          	mov    %eax,0x10(%rsp)
  4016b8:	8b 44 24 0c          	mov    0xc(%rsp),%eax
  4016bc:	69 c0 96 14 00 00    	imul   $0x1496,%eax,%eax
  4016c2:	89 44 24 0c          	mov    %eax,0xc(%rsp)
  4016c6:	8b 44 24 08          	mov    0x8(%rsp),%eax
  4016ca:	69 c0 26 c2 00 00    	imul   $0xc226,%eax,%eax
  4016d0:	89 44 24 08          	mov    %eax,0x8(%rsp)
  4016d4:	8b 44 24 10          	mov    0x10(%rsp),%eax
  4016d8:	69 c0 cc fd 00 00    	imul   $0xfdcc,%eax,%eax
  4016de:	89 44 24 10          	mov    %eax,0x10(%rsp)
  4016e2:	8b 44 24 0c          	mov    0xc(%rsp),%eax
  4016e6:	69 c0 66 c9 00 00    	imul   $0xc966,%eax,%eax
  4016ec:	89 44 24 0c          	mov    %eax,0xc(%rsp)
  4016f0:	8b 44 24 18          	mov    0x18(%rsp),%eax
  4016f4:	69 c0 b0 ae 00 00    	imul   $0xaeb0,%eax,%eax
  4016fa:	89 44 24 18          	mov    %eax,0x18(%rsp)
  4016fe:	8b 44 24 20          	mov    0x20(%rsp),%eax
  401702:	69 c0 57 ad 00 00    	imul   $0xad57,%eax,%eax
  401708:	89 44 24 20          	mov    %eax,0x20(%rsp)
  40170c:	8b 04 24             	mov    (%rsp),%eax
  40170f:	69 c0 9e 73 00 00    	imul   $0x739e,%eax,%eax
  401715:	89 04 24             	mov    %eax,(%rsp)
  401718:	8b 44 24 24          	mov    0x24(%rsp),%eax
  40171c:	69 c0 bc 45 00 00    	imul   $0x45bc,%eax,%eax
  401722:	89 44 24 24          	mov    %eax,0x24(%rsp)
  401726:	8b 44 24 20          	mov    0x20(%rsp),%eax
  40172a:	69 c0 7a 37 00 00    	imul   $0x377a,%eax,%eax
  401730:	89 44 24 20          	mov    %eax,0x20(%rsp)
  401734:	8b 44 24 14          	mov    0x14(%rsp),%eax
  401738:	69 c0 5b 2b 00 00    	imul   $0x2b5b,%eax,%eax
  40173e:	89 44 24 14          	mov    %eax,0x14(%rsp)
  401742:	8b 44 24 08          	mov    0x8(%rsp),%eax
  401746:	69 c0 5a c1 00 00    	imul   $0xc15a,%eax,%eax
  40174c:	89 44 24 08          	mov    %eax,0x8(%rsp)
  401750:	8b 44 24 04          	mov    0x4(%rsp),%eax
  401754:	69 c0 d3 e7 00 00    	imul   $0xe7d3,%eax,%eax
  40175a:	89 44 24 04          	mov    %eax,0x4(%rsp)
  40175e:	8b 44 24 10          	mov    0x10(%rsp),%eax
  401762:	69 c0 62 c8 00 00    	imul   $0xc862,%eax,%eax
  401768:	89 44 24 10          	mov    %eax,0x10(%rsp)
  40176c:	8b 44 24 1c          	mov    0x1c(%rsp),%eax
  401770:	69 c0 f9 fb 00 00    	imul   $0xfbf9,%eax,%eax
  401776:	89 44 24 1c          	mov    %eax,0x1c(%rsp)
  40177a:	8b 44 24 08          	mov    0x8(%rsp),%eax
  40177e:	69 c0 30 b7 00 00    	imul   $0xb730,%eax,%eax
  401784:	89 44 24 08          	mov    %eax,0x8(%rsp)
  401788:	8b 44 24 10          	mov    0x10(%rsp),%eax
  40178c:	69 c0 99 a2 00 00    	imul   $0xa299,%eax,%eax
  401792:	89 44 24 10          	mov    %eax,0x10(%rsp)
  401796:	8b 44 24 18          	mov    0x18(%rsp),%eax
  40179a:	69 c0 e5 04 00 00    	imul   $0x4e5,%eax,%eax
  4017a0:	89 44 24 18          	mov    %eax,0x18(%rsp)
  4017a4:	8b 44 24 14          	mov    0x14(%rsp),%eax
  4017a8:	69 c0 3e 86 00 00    	imul   $0x863e,%eax,%eax
  4017ae:	89 44 24 14          	mov    %eax,0x14(%rsp)
  4017b2:	8b 44 24 14          	mov    0x14(%rsp),%eax
  4017b6:	69 c0 26 a7 00 00    	imul   $0xa726,%eax,%eax
  4017bc:	89 44 24 14          	mov    %eax,0x14(%rsp)
  4017c0:	8b 44 24 0c          	mov    0xc(%rsp),%eax
  4017c4:	69 c0 bb 05 00 00    	imul   $0x5bb,%eax,%eax
  4017ca:	89 44 24 0c          	mov    %eax,0xc(%rsp)
  4017ce:	8b 44 24 20          	mov    0x20(%rsp),%eax
  4017d2:	69 c0 95 4c 00 00    	imul   $0x4c95,%eax,%eax
  4017d8:	89 44 24 20          	mov    %eax,0x20(%rsp)
  4017dc:	8b 44 24 0c          	mov    0xc(%rsp),%eax
  4017e0:	69 c0 e3 0c 00 00    	imul   $0xce3,%eax,%eax
  4017e6:	89 44 24 0c          	mov    %eax,0xc(%rsp)
  4017ea:	8b 44 24 1c          	mov    0x1c(%rsp),%eax
  4017ee:	69 c0 f8 0c 00 00    	imul   $0xcf8,%eax,%eax
  4017f4:	89 44 24 1c          	mov    %eax,0x1c(%rsp)
  4017f8:	8b 44 24 20          	mov    0x20(%rsp),%eax
  4017fc:	69 c0 7e 07 00 00    	imul   $0x77e,%eax,%eax
  401802:	89 44 24 20          	mov    %eax,0x20(%rsp)
  401806:	8b 04 24             	mov    (%rsp),%eax
  401809:	69 c0 e7 44 00 00    	imul   $0x44e7,%eax,%eax
  40180f:	89 04 24             	mov    %eax,(%rsp)
  401812:	8b 44 24 08          	mov    0x8(%rsp),%eax
  401816:	69 c0 22 2f 00 00    	imul   $0x2f22,%eax,%eax
  40181c:	89 44 24 08          	mov    %eax,0x8(%rsp)
  401820:	8b 44 24 24          	mov    0x24(%rsp),%eax
  401824:	69 c0 b0 c0 00 00    	imul   $0xc0b0,%eax,%eax
  40182a:	89 44 24 24          	mov    %eax,0x24(%rsp)
  40182e:	8b 44 24 18          	mov    0x18(%rsp),%eax
  401832:	69 c0 6d 67 00 00    	imul   $0x676d,%eax,%eax
  401838:	89 44 24 18          	mov    %eax,0x18(%rsp)
  40183c:	8b 04 24             	mov    (%rsp),%eax
  40183f:	69 c0 48 c2 00 00    	imul   $0xc248,%eax,%eax
  401845:	89 04 24             	mov    %eax,(%rsp)
  401848:	8b 44 24 18          	mov    0x18(%rsp),%eax
  40184c:	69 c0 47 f6 00 00    	imul   $0xf647,%eax,%eax
  401852:	89 44 24 18          	mov    %eax,0x18(%rsp)
  401856:	8b 44 24 1c          	mov    0x1c(%rsp),%eax
  40185a:	69 c0 00 cf 00 00    	imul   $0xcf00,%eax,%eax
  401860:	89 44 24 1c          	mov    %eax,0x1c(%rsp)
  401864:	8b 44 24 24          	mov    0x24(%rsp),%eax
  401868:	69 c0 3f 45 00 00    	imul   $0x453f,%eax,%eax
  40186e:	89 44 24 24          	mov    %eax,0x24(%rsp)
  401872:	8b 44 24 04          	mov    0x4(%rsp),%eax
  401876:	69 c0 a1 fd 00 00    	imul   $0xfda1,%eax,%eax
  40187c:	89 44 24 04          	mov    %eax,0x4(%rsp)
  401880:	8b 44 24 14          	mov    0x14(%rsp),%eax
  401884:	69 c0 97 d6 00 00    	imul   $0xd697,%eax,%eax
  40188a:	89 44 24 14          	mov    %eax,0x14(%rsp)
  40188e:	8b 44 24 20          	mov    0x20(%rsp),%eax
  401892:	69 c0 22 1b 00 00    	imul   $0x1b22,%eax,%eax
  401898:	89 44 24 20          	mov    %eax,0x20(%rsp)
  40189c:	8b 04 24             	mov    (%rsp),%eax
  40189f:	69 c0 9e fa 00 00    	imul   $0xfa9e,%eax,%eax
  4018a5:	89 04 24             	mov    %eax,(%rsp)
  4018a8:	8b 44 24 10          	mov    0x10(%rsp),%eax
  4018ac:	69 c0 64 8f 00 00    	imul   $0x8f64,%eax,%eax
  4018b2:	89 44 24 10          	mov    %eax,0x10(%rsp)
  4018b6:	8b 44 24 1c          	mov    0x1c(%rsp),%eax
  4018ba:	69 c0 eb 27 00 00    	imul   $0x27eb,%eax,%eax
  4018c0:	89 44 24 1c          	mov    %eax,0x1c(%rsp)
  4018c4:	8b 44 24 08          	mov    0x8(%rsp),%eax
  4018c8:	69 c0 21 5a 00 00    	imul   $0x5a21,%eax,%eax
  4018ce:	89 44 24 08          	mov    %eax,0x8(%rsp)
  4018d2:	8b 44 24 04          	mov    0x4(%rsp),%eax
  4018d6:	69 c0 cf e0 00 00    	imul   $0xe0cf,%eax,%eax
  4018dc:	89 44 24 04          	mov    %eax,0x4(%rsp)
  4018e0:	8b 44 24 04          	mov    0x4(%rsp),%eax
  4018e4:	69 c0 44 62 00 00    	imul   $0x6244,%eax,%eax
  4018ea:	89 44 24 04          	mov    %eax,0x4(%rsp)
  4018ee:	8b 44 24 18          	mov    0x18(%rsp),%eax
  4018f2:	69 c0 4b a5 00 00    	imul   $0xa54b,%eax,%eax
  4018f8:	89 44 24 18          	mov    %eax,0x18(%rsp)
  4018fc:	8b 04 24             	mov    (%rsp),%eax
  4018ff:	69 c0 e7 26 00 00    	imul   $0x26e7,%eax,%eax
  401905:	89 04 24             	mov    %eax,(%rsp)
  401908:	8b 44 24 24          	mov    0x24(%rsp),%eax
  40190c:	69 c0 06 ac 00 00    	imul   $0xac06,%eax,%eax
  401912:	89 44 24 24          	mov    %eax,0x24(%rsp)
  401916:	8b 44 24 20          	mov    0x20(%rsp),%eax
  40191a:	69 c0 1e 70 00 00    	imul   $0x701e,%eax,%eax
  401920:	89 44 24 20          	mov    %eax,0x20(%rsp)
  401924:	ba 00 00 00 00       	mov    $0x0,%edx
  401929:	b8 00 00 00 00       	mov    $0x0,%eax
  40192e:	eb 0a                	jmp    40193a <scramble+0x5ab>
  401930:	89 d1                	mov    %edx,%ecx
  401932:	8b 0c 8c             	mov    (%rsp,%rcx,4),%ecx
  401935:	01 c8                	add    %ecx,%eax
  401937:	83 c2 01             	add    $0x1,%edx
  40193a:	83 fa 09             	cmp    $0x9,%edx
  40193d:	76 f1                	jbe    401930 <scramble+0x5a1>
  40193f:	48 8b 74 24 28       	mov    0x28(%rsp),%rsi
  401944:	64 48 33 34 25 28 00 	xor    %fs:0x28,%rsi
  40194b:	00 00 
  40194d:	74 05                	je     401954 <scramble+0x5c5>
  40194f:	e8 9c f3 ff ff       	callq  400cf0 <__stack_chk_fail@plt>
  401954:	48 83 c4 38          	add    $0x38,%rsp
  401958:	c3                   	retq   

0000000000401959 <getbuf>:
  401959:	48 83 ec 28          	sub    $0x28,%rsp
  40195d:	48 89 e7             	mov    %rsp,%rdi
  401960:	e8 9f 03 00 00       	callq  401d04 <Gets>
  401965:	b8 01 00 00 00       	mov    $0x1,%eax
  40196a:	48 83 c4 28          	add    $0x28,%rsp
  40196e:	c3                   	retq   

000000000040196f <touch1>:
  40196f:	48 83 ec 08          	sub    $0x8,%rsp
  401973:	c7 05 9f 3b 20 00 01 	movl   $0x1,0x203b9f(%rip)        # 60551c <vlevel>
  40197a:	00 00 00 
  40197d:	bf aa 33 40 00       	mov    $0x4033aa,%edi
  401982:	e8 49 f3 ff ff       	callq  400cd0 <puts@plt>
  401987:	bf 01 00 00 00       	mov    $0x1,%edi
  40198c:	e8 b8 05 00 00       	callq  401f49 <validate>
  401991:	bf 00 00 00 00       	mov    $0x0,%edi
  401996:	e8 b5 f4 ff ff       	callq  400e50 <exit@plt>

000000000040199b <touch2>:
  40199b:	48 83 ec 08          	sub    $0x8,%rsp
  40199f:	89 fa                	mov    %edi,%edx
  4019a1:	c7 05 71 3b 20 00 02 	movl   $0x2,0x203b71(%rip)        # 60551c <vlevel>
  4019a8:	00 00 00 
  4019ab:	39 3d 73 3b 20 00    	cmp    %edi,0x203b73(%rip)        # 605524 <cookie>
  4019b1:	75 20                	jne    4019d3 <touch2+0x38>
  4019b3:	be d0 33 40 00       	mov    $0x4033d0,%esi
  4019b8:	bf 01 00 00 00       	mov    $0x1,%edi
  4019bd:	b8 00 00 00 00       	mov    $0x0,%eax
  4019c2:	e8 39 f4 ff ff       	callq  400e00 <__printf_chk@plt>
  4019c7:	bf 02 00 00 00       	mov    $0x2,%edi
  4019cc:	e8 78 05 00 00       	callq  401f49 <validate>
  4019d1:	eb 1e                	jmp    4019f1 <touch2+0x56>
  4019d3:	be f8 33 40 00       	mov    $0x4033f8,%esi
  4019d8:	bf 01 00 00 00       	mov    $0x1,%edi
  4019dd:	b8 00 00 00 00       	mov    $0x0,%eax
  4019e2:	e8 19 f4 ff ff       	callq  400e00 <__printf_chk@plt>
  4019e7:	bf 02 00 00 00       	mov    $0x2,%edi
  4019ec:	e8 1a 06 00 00       	callq  40200b <fail>
  4019f1:	bf 00 00 00 00       	mov    $0x0,%edi
  4019f6:	e8 55 f4 ff ff       	callq  400e50 <exit@plt>

00000000004019fb <hexmatch>:
  4019fb:	41 54                	push   %r12
  4019fd:	55                   	push   %rbp
  4019fe:	53                   	push   %rbx
  4019ff:	48 83 c4 80          	add    $0xffffffffffffff80,%rsp
  401a03:	89 fd                	mov    %edi,%ebp
  401a05:	48 89 f3             	mov    %rsi,%rbx
  401a08:	64 48 8b 04 25 28 00 	mov    %fs:0x28,%rax
  401a0f:	00 00 
  401a11:	48 89 44 24 78       	mov    %rax,0x78(%rsp)
  401a16:	31 c0                	xor    %eax,%eax
  401a18:	e8 a3 f3 ff ff       	callq  400dc0 <random@plt>
  401a1d:	48 89 c1             	mov    %rax,%rcx
  401a20:	48 ba 0b d7 a3 70 3d 	movabs $0xa3d70a3d70a3d70b,%rdx
  401a27:	0a d7 a3 
  401a2a:	48 f7 ea             	imul   %rdx
  401a2d:	48 01 ca             	add    %rcx,%rdx
  401a30:	48 c1 fa 06          	sar    $0x6,%rdx
  401a34:	48 89 c8             	mov    %rcx,%rax
  401a37:	48 c1 f8 3f          	sar    $0x3f,%rax
  401a3b:	48 29 c2             	sub    %rax,%rdx
  401a3e:	48 8d 04 92          	lea    (%rdx,%rdx,4),%rax
  401a42:	48 8d 14 80          	lea    (%rax,%rax,4),%rdx
  401a46:	48 8d 04 95 00 00 00 	lea    0x0(,%rdx,4),%rax
  401a4d:	00 
  401a4e:	48 29 c1             	sub    %rax,%rcx
  401a51:	4c 8d 24 0c          	lea    (%rsp,%rcx,1),%r12
  401a55:	41 89 e8             	mov    %ebp,%r8d
  401a58:	b9 c7 33 40 00       	mov    $0x4033c7,%ecx
  401a5d:	48 c7 c2 ff ff ff ff 	mov    $0xffffffffffffffff,%rdx
  401a64:	be 01 00 00 00       	mov    $0x1,%esi
  401a69:	4c 89 e7             	mov    %r12,%rdi
  401a6c:	b8 00 00 00 00       	mov    $0x0,%eax
  401a71:	e8 0a f4 ff ff       	callq  400e80 <__sprintf_chk@plt>
  401a76:	ba 09 00 00 00       	mov    $0x9,%edx
  401a7b:	4c 89 e6             	mov    %r12,%rsi
  401a7e:	48 89 df             	mov    %rbx,%rdi
  401a81:	e8 2a f2 ff ff       	callq  400cb0 <strncmp@plt>
  401a86:	85 c0                	test   %eax,%eax
  401a88:	0f 94 c0             	sete   %al
  401a8b:	48 8b 5c 24 78       	mov    0x78(%rsp),%rbx
  401a90:	64 48 33 1c 25 28 00 	xor    %fs:0x28,%rbx
  401a97:	00 00 
  401a99:	74 05                	je     401aa0 <hexmatch+0xa5>
  401a9b:	e8 50 f2 ff ff       	callq  400cf0 <__stack_chk_fail@plt>
  401aa0:	0f b6 c0             	movzbl %al,%eax
  401aa3:	48 83 ec 80          	sub    $0xffffffffffffff80,%rsp
  401aa7:	5b                   	pop    %rbx
  401aa8:	5d                   	pop    %rbp
  401aa9:	41 5c                	pop    %r12
  401aab:	c3                   	retq   

0000000000401aac <touch3>:
  401aac:	53                   	push   %rbx
  401aad:	48 89 fb             	mov    %rdi,%rbx
  401ab0:	c7 05 62 3a 20 00 03 	movl   $0x3,0x203a62(%rip)        # 60551c <vlevel>
  401ab7:	00 00 00 
  401aba:	48 89 fe             	mov    %rdi,%rsi
  401abd:	8b 3d 61 3a 20 00    	mov    0x203a61(%rip),%edi        # 605524 <cookie>
  401ac3:	e8 33 ff ff ff       	callq  4019fb <hexmatch>
  401ac8:	85 c0                	test   %eax,%eax
  401aca:	74 23                	je     401aef <touch3+0x43>
  401acc:	48 89 da             	mov    %rbx,%rdx
  401acf:	be 20 34 40 00       	mov    $0x403420,%esi
  401ad4:	bf 01 00 00 00       	mov    $0x1,%edi
  401ad9:	b8 00 00 00 00       	mov    $0x0,%eax
  401ade:	e8 1d f3 ff ff       	callq  400e00 <__printf_chk@plt>
  401ae3:	bf 03 00 00 00       	mov    $0x3,%edi
  401ae8:	e8 5c 04 00 00       	callq  401f49 <validate>
  401aed:	eb 21                	jmp    401b10 <touch3+0x64>
  401aef:	48 89 da             	mov    %rbx,%rdx
  401af2:	be 48 34 40 00       	mov    $0x403448,%esi
  401af7:	bf 01 00 00 00       	mov    $0x1,%edi
  401afc:	b8 00 00 00 00       	mov    $0x0,%eax
  401b01:	e8 fa f2 ff ff       	callq  400e00 <__printf_chk@plt>
  401b06:	bf 03 00 00 00       	mov    $0x3,%edi
  401b0b:	e8 fb 04 00 00       	callq  40200b <fail>
  401b10:	bf 00 00 00 00       	mov    $0x0,%edi
  401b15:	e8 36 f3 ff ff       	callq  400e50 <exit@plt>

0000000000401b1a <test>:
  401b1a:	48 83 ec 08          	sub    $0x8,%rsp
  401b1e:	b8 00 00 00 00       	mov    $0x0,%eax
  401b23:	e8 31 fe ff ff       	callq  401959 <getbuf>
  401b28:	89 c2                	mov    %eax,%edx
  401b2a:	be 70 34 40 00       	mov    $0x403470,%esi
  401b2f:	bf 01 00 00 00       	mov    $0x1,%edi
  401b34:	b8 00 00 00 00       	mov    $0x0,%eax
  401b39:	e8 c2 f2 ff ff       	callq  400e00 <__printf_chk@plt>
  401b3e:	48 83 c4 08          	add    $0x8,%rsp
  401b42:	c3                   	retq   

0000000000401b43 <start_farm>:
  401b43:	b8 01 00 00 00       	mov    $0x1,%eax
  401b48:	c3                   	retq   

0000000000401b49 <addval_219>:
  401b49:	8d 87 48 89 c7 c3    	lea    -0x3c3876b8(%rdi),%eax
  401b4f:	c3                   	retq   

0000000000401b50 <addval_162>:
  401b50:	8d 87 40 89 c7 c3    	lea    -0x3c3876c0(%rdi),%eax
  401b56:	c3                   	retq   

0000000000401b57 <getval_145>:
  401b57:	b8 95 24 58 c3       	mov    $0xc3582495,%eax
  401b5c:	c3                   	retq   

0000000000401b5d <setval_159>:
  401b5d:	c7 07 48 89 c7 c2    	movl   $0xc2c78948,(%rdi)
  401b63:	c3                   	retq   

0000000000401b64 <addval_349>:
  401b64:	8d 87 48 89 c7 c3    	lea    -0x3c3876b8(%rdi),%eax
  401b6a:	c3                   	retq   

0000000000401b6b <getval_499>:
  401b6b:	b8 58 da 58 90       	mov    $0x9058da58,%eax
  401b70:	c3                   	retq   

0000000000401b71 <setval_128>:
  401b71:	c7 07 48 90 90 c3    	movl   $0xc3909048,(%rdi)
  401b77:	c3                   	retq   

0000000000401b78 <setval_324>:
  401b78:	c7 07 58 92 90 c3    	movl   $0xc3909258,(%rdi)
  401b7e:	c3                   	retq   

0000000000401b7f <mid_farm>:
  401b7f:	b8 01 00 00 00       	mov    $0x1,%eax
  401b84:	c3                   	retq   

0000000000401b85 <add_xy>:
  401b85:	48 8d 04 37          	lea    (%rdi,%rsi,1),%rax
  401b89:	c3                   	retq   

0000000000401b8a <addval_469>:
  401b8a:	8d 87 89 d6 28 db    	lea    -0x24d72977(%rdi),%eax
  401b90:	c3                   	retq   

0000000000401b91 <addval_112>:
  401b91:	8d 87 81 ca 90 c3    	lea    -0x3c6f357f(%rdi),%eax
  401b97:	c3                   	retq   

0000000000401b98 <getval_107>:
  401b98:	b8 89 c1 60 d2       	mov    $0xd260c189,%eax
  401b9d:	c3                   	retq   

0000000000401b9e <setval_271>:
  401b9e:	c7 07 c4 58 89 e0    	movl   $0xe08958c4,(%rdi)
  401ba4:	c3                   	retq   

0000000000401ba5 <addval_104>:
  401ba5:	8d 87 89 ca 94 db    	lea    -0x246b3577(%rdi),%eax
  401bab:	c3                   	retq   

0000000000401bac <setval_321>:
  401bac:	c7 07 48 89 e0 94    	movl   $0x94e08948,(%rdi)
  401bb2:	c3                   	retq   

0000000000401bb3 <getval_211>:
  401bb3:	b8 60 09 d6 90       	mov    $0x90d60960,%eax
  401bb8:	c3                   	retq   

0000000000401bb9 <addval_449>:
  401bb9:	8d 87 48 89 e0 c3    	lea    -0x3c1f76b8(%rdi),%eax
  401bbf:	c3                   	retq   

0000000000401bc0 <setval_118>:
  401bc0:	c7 07 89 c1 78 db    	movl   $0xdb78c189,(%rdi)
  401bc6:	c3                   	retq   

0000000000401bc7 <getval_109>:
  401bc7:	b8 18 89 d6 90       	mov    $0x90d68918,%eax
  401bcc:	c3                   	retq   

0000000000401bcd <addval_377>:
  401bcd:	8d 87 89 d6 94 c9    	lea    -0x366b2977(%rdi),%eax
  401bd3:	c3                   	retq   

0000000000401bd4 <getval_400>:
  401bd4:	b8 38 1b 89 c1       	mov    $0xc1891b38,%eax
  401bd9:	c3                   	retq   

0000000000401bda <getval_422>:
  401bda:	b8 89 ca 08 d2       	mov    $0xd208ca89,%eax
  401bdf:	c3                   	retq   

0000000000401be0 <setval_329>:
  401be0:	c7 07 48 8b e0 90    	movl   $0x90e08b48,(%rdi)
  401be6:	c3                   	retq   

0000000000401be7 <getval_108>:
  401be7:	b8 89 d6 90 c2       	mov    $0xc290d689,%eax
  401bec:	c3                   	retq   

0000000000401bed <setval_355>:
  401bed:	c7 07 49 89 e0 c3    	movl   $0xc3e08949,(%rdi)
  401bf3:	c3                   	retq   

0000000000401bf4 <addval_326>:
  401bf4:	8d 87 c9 ca 84 c0    	lea    -0x3f7b3537(%rdi),%eax
  401bfa:	c3                   	retq   

0000000000401bfb <getval_278>:
  401bfb:	b8 89 c1 30 c9       	mov    $0xc930c189,%eax
  401c00:	c3                   	retq   

0000000000401c01 <addval_280>:
  401c01:	8d 87 89 ca 90 90    	lea    -0x6f6f3577(%rdi),%eax
  401c07:	c3                   	retq   

0000000000401c08 <setval_304>:
  401c08:	c7 07 48 89 e0 c3    	movl   $0xc3e08948,(%rdi)
  401c0e:	c3                   	retq   

0000000000401c0f <setval_319>:
  401c0f:	c7 07 a9 ca 90 c3    	movl   $0xc390caa9,(%rdi)
  401c15:	c3                   	retq   

0000000000401c16 <addval_239>:
  401c16:	8d 87 88 d6 84 d2    	lea    -0x2d7b2978(%rdi),%eax
  401c1c:	c3                   	retq   

0000000000401c1d <setval_482>:
  401c1d:	c7 07 89 d6 c1 90    	movl   $0x90c1d689,(%rdi)
  401c23:	c3                   	retq   

0000000000401c24 <getval_336>:
  401c24:	b8 8d c1 84 c0       	mov    $0xc084c18d,%eax
  401c29:	c3                   	retq   

0000000000401c2a <setval_370>:
  401c2a:	c7 07 c9 ca 20 d2    	movl   $0xd220cac9,(%rdi)
  401c30:	c3                   	retq   

0000000000401c31 <addval_334>:
  401c31:	8d 87 78 81 c1 90    	lea    -0x6f3e7e88(%rdi),%eax
  401c37:	c3                   	retq   

0000000000401c38 <getval_424>:
  401c38:	b8 4a 89 e0 c3       	mov    $0xc3e0894a,%eax
  401c3d:	c3                   	retq   

0000000000401c3e <getval_467>:
  401c3e:	b8 99 ca 20 c9       	mov    $0xc920ca99,%eax
  401c43:	c3                   	retq   

0000000000401c44 <getval_427>:
  401c44:	b8 63 0c 89 d6       	mov    $0xd6890c63,%eax
  401c49:	c3                   	retq   

0000000000401c4a <getval_466>:
  401c4a:	b8 48 89 e0 c1       	mov    $0xc1e08948,%eax
  401c4f:	c3                   	retq   

0000000000401c50 <setval_423>:
  401c50:	c7 07 89 c1 20 db    	movl   $0xdb20c189,(%rdi)
  401c56:	c3                   	retq   

0000000000401c57 <addval_135>:
  401c57:	8d 87 81 c1 90 90    	lea    -0x6f6f3e7f(%rdi),%eax
  401c5d:	c3                   	retq   

0000000000401c5e <end_farm>:
  401c5e:	b8 01 00 00 00       	mov    $0x1,%eax
  401c63:	c3                   	retq   

0000000000401c64 <save_char>:
  401c64:	8b 05 da 44 20 00    	mov    0x2044da(%rip),%eax        # 606144 <gets_cnt>
  401c6a:	3d ff 03 00 00       	cmp    $0x3ff,%eax
  401c6f:	7f 49                	jg     401cba <save_char+0x56>
  401c71:	8d 14 40             	lea    (%rax,%rax,2),%edx
  401c74:	89 f9                	mov    %edi,%ecx
  401c76:	c0 e9 04             	shr    $0x4,%cl
  401c79:	83 e1 0f             	and    $0xf,%ecx
  401c7c:	0f b6 b1 90 37 40 00 	movzbl 0x403790(%rcx),%esi
  401c83:	48 63 ca             	movslq %edx,%rcx
  401c86:	40 88 b1 40 55 60 00 	mov    %sil,0x605540(%rcx)
  401c8d:	8d 4a 01             	lea    0x1(%rdx),%ecx
  401c90:	83 e7 0f             	and    $0xf,%edi
  401c93:	0f b6 b7 90 37 40 00 	movzbl 0x403790(%rdi),%esi
  401c9a:	48 63 c9             	movslq %ecx,%rcx
  401c9d:	40 88 b1 40 55 60 00 	mov    %sil,0x605540(%rcx)
  401ca4:	83 c2 02             	add    $0x2,%edx
  401ca7:	48 63 d2             	movslq %edx,%rdx
  401caa:	c6 82 40 55 60 00 20 	movb   $0x20,0x605540(%rdx)
  401cb1:	83 c0 01             	add    $0x1,%eax
  401cb4:	89 05 8a 44 20 00    	mov    %eax,0x20448a(%rip)        # 606144 <gets_cnt>
  401cba:	f3 c3                	repz retq 

0000000000401cbc <save_term>:
  401cbc:	8b 05 82 44 20 00    	mov    0x204482(%rip),%eax        # 606144 <gets_cnt>
  401cc2:	8d 04 40             	lea    (%rax,%rax,2),%eax
  401cc5:	48 98                	cltq   
  401cc7:	c6 80 40 55 60 00 00 	movb   $0x0,0x605540(%rax)
  401cce:	c3                   	retq   

0000000000401ccf <check_fail>:
  401ccf:	48 83 ec 08          	sub    $0x8,%rsp
  401cd3:	0f be 15 6e 44 20 00 	movsbl 0x20446e(%rip),%edx        # 606148 <target_prefix>
  401cda:	41 b8 40 55 60 00    	mov    $0x605540,%r8d
  401ce0:	8b 0d 32 38 20 00    	mov    0x203832(%rip),%ecx        # 605518 <check_level>
  401ce6:	be 93 34 40 00       	mov    $0x403493,%esi
  401ceb:	bf 01 00 00 00       	mov    $0x1,%edi
  401cf0:	b8 00 00 00 00       	mov    $0x0,%eax
  401cf5:	e8 06 f1 ff ff       	callq  400e00 <__printf_chk@plt>
  401cfa:	bf 01 00 00 00       	mov    $0x1,%edi
  401cff:	e8 4c f1 ff ff       	callq  400e50 <exit@plt>

0000000000401d04 <Gets>:
  401d04:	41 54                	push   %r12
  401d06:	55                   	push   %rbp
  401d07:	53                   	push   %rbx
  401d08:	49 89 fc             	mov    %rdi,%r12
  401d0b:	c7 05 2f 44 20 00 00 	movl   $0x0,0x20442f(%rip)        # 606144 <gets_cnt>
  401d12:	00 00 00 
  401d15:	48 89 fb             	mov    %rdi,%rbx
  401d18:	eb 11                	jmp    401d2b <Gets+0x27>
  401d1a:	48 8d 6b 01          	lea    0x1(%rbx),%rbp
  401d1e:	88 03                	mov    %al,(%rbx)
  401d20:	0f b6 f8             	movzbl %al,%edi
  401d23:	e8 3c ff ff ff       	callq  401c64 <save_char>
  401d28:	48 89 eb             	mov    %rbp,%rbx
  401d2b:	48 8b 3d de 37 20 00 	mov    0x2037de(%rip),%rdi        # 605510 <infile>
  401d32:	e8 99 f0 ff ff       	callq  400dd0 <_IO_getc@plt>
  401d37:	83 f8 ff             	cmp    $0xffffffff,%eax
  401d3a:	74 05                	je     401d41 <Gets+0x3d>
  401d3c:	83 f8 0a             	cmp    $0xa,%eax
  401d3f:	75 d9                	jne    401d1a <Gets+0x16>
  401d41:	c6 03 00             	movb   $0x0,(%rbx)
  401d44:	b8 00 00 00 00       	mov    $0x0,%eax
  401d49:	e8 6e ff ff ff       	callq  401cbc <save_term>
  401d4e:	4c 89 e0             	mov    %r12,%rax
  401d51:	5b                   	pop    %rbx
  401d52:	5d                   	pop    %rbp
  401d53:	41 5c                	pop    %r12
  401d55:	c3                   	retq   

0000000000401d56 <notify_server>:
  401d56:	53                   	push   %rbx
  401d57:	48 81 ec 10 40 00 00 	sub    $0x4010,%rsp
  401d5e:	64 48 8b 04 25 28 00 	mov    %fs:0x28,%rax
  401d65:	00 00 
  401d67:	48 89 84 24 08 40 00 	mov    %rax,0x4008(%rsp)
  401d6e:	00 
  401d6f:	31 c0                	xor    %eax,%eax
  401d71:	83 3d b0 37 20 00 00 	cmpl   $0x0,0x2037b0(%rip)        # 605528 <is_checker>
  401d78:	0f 85 aa 01 00 00    	jne    401f28 <notify_server+0x1d2>
  401d7e:	89 fb                	mov    %edi,%ebx
  401d80:	8b 05 be 43 20 00    	mov    0x2043be(%rip),%eax        # 606144 <gets_cnt>
  401d86:	83 c0 64             	add    $0x64,%eax
  401d89:	3d 00 20 00 00       	cmp    $0x2000,%eax
  401d8e:	7e 1e                	jle    401dae <notify_server+0x58>
  401d90:	be c8 35 40 00       	mov    $0x4035c8,%esi
  401d95:	bf 01 00 00 00       	mov    $0x1,%edi
  401d9a:	b8 00 00 00 00       	mov    $0x0,%eax
  401d9f:	e8 5c f0 ff ff       	callq  400e00 <__printf_chk@plt>
  401da4:	bf 01 00 00 00       	mov    $0x1,%edi
  401da9:	e8 a2 f0 ff ff       	callq  400e50 <exit@plt>
  401dae:	0f be 05 93 43 20 00 	movsbl 0x204393(%rip),%eax        # 606148 <target_prefix>
  401db5:	83 3d ec 36 20 00 00 	cmpl   $0x0,0x2036ec(%rip)        # 6054a8 <notify>
  401dbc:	74 08                	je     401dc6 <notify_server+0x70>
  401dbe:	8b 15 5c 37 20 00    	mov    0x20375c(%rip),%edx        # 605520 <authkey>
  401dc4:	eb 05                	jmp    401dcb <notify_server+0x75>
  401dc6:	ba ff ff ff ff       	mov    $0xffffffff,%edx
  401dcb:	85 db                	test   %ebx,%ebx
  401dcd:	74 08                	je     401dd7 <notify_server+0x81>
  401dcf:	41 b9 a9 34 40 00    	mov    $0x4034a9,%r9d
  401dd5:	eb 06                	jmp    401ddd <notify_server+0x87>
  401dd7:	41 b9 ae 34 40 00    	mov    $0x4034ae,%r9d
  401ddd:	68 40 55 60 00       	pushq  $0x605540
  401de2:	56                   	push   %rsi
  401de3:	50                   	push   %rax
  401de4:	52                   	push   %rdx
  401de5:	44 8b 05 7c 33 20 00 	mov    0x20337c(%rip),%r8d        # 605168 <target_id>
  401dec:	b9 b3 34 40 00       	mov    $0x4034b3,%ecx
  401df1:	ba 00 20 00 00       	mov    $0x2000,%edx
  401df6:	be 01 00 00 00       	mov    $0x1,%esi
  401dfb:	48 8d 7c 24 20       	lea    0x20(%rsp),%rdi
  401e00:	b8 00 00 00 00       	mov    $0x0,%eax
  401e05:	e8 76 f0 ff ff       	callq  400e80 <__sprintf_chk@plt>
  401e0a:	48 83 c4 20          	add    $0x20,%rsp
  401e0e:	83 3d 93 36 20 00 00 	cmpl   $0x0,0x203693(%rip)        # 6054a8 <notify>
  401e15:	0f 84 81 00 00 00    	je     401e9c <notify_server+0x146>
  401e1b:	85 db                	test   %ebx,%ebx
  401e1d:	74 6e                	je     401e8d <notify_server+0x137>
  401e1f:	4c 8d 8c 24 00 20 00 	lea    0x2000(%rsp),%r9
  401e26:	00 
  401e27:	41 b8 00 00 00 00    	mov    $0x0,%r8d
  401e2d:	48 89 e1             	mov    %rsp,%rcx
  401e30:	48 8b 15 39 33 20 00 	mov    0x203339(%rip),%rdx        # 605170 <lab>
  401e37:	48 8b 35 3a 33 20 00 	mov    0x20333a(%rip),%rsi        # 605178 <course>
  401e3e:	48 8b 3d 1b 33 20 00 	mov    0x20331b(%rip),%rdi        # 605160 <user_id>
  401e45:	e8 ef 10 00 00       	callq  402f39 <driver_post>
  401e4a:	85 c0                	test   %eax,%eax
  401e4c:	79 26                	jns    401e74 <notify_server+0x11e>
  401e4e:	48 8d 94 24 00 20 00 	lea    0x2000(%rsp),%rdx
  401e55:	00 
  401e56:	be cf 34 40 00       	mov    $0x4034cf,%esi
  401e5b:	bf 01 00 00 00       	mov    $0x1,%edi
  401e60:	b8 00 00 00 00       	mov    $0x0,%eax
  401e65:	e8 96 ef ff ff       	callq  400e00 <__printf_chk@plt>
  401e6a:	bf 01 00 00 00       	mov    $0x1,%edi
  401e6f:	e8 dc ef ff ff       	callq  400e50 <exit@plt>
  401e74:	bf f8 35 40 00       	mov    $0x4035f8,%edi
  401e79:	e8 52 ee ff ff       	callq  400cd0 <puts@plt>
  401e7e:	bf db 34 40 00       	mov    $0x4034db,%edi
  401e83:	e8 48 ee ff ff       	callq  400cd0 <puts@plt>
  401e88:	e9 9b 00 00 00       	jmpq   401f28 <notify_server+0x1d2>
  401e8d:	bf e5 34 40 00       	mov    $0x4034e5,%edi
  401e92:	e8 39 ee ff ff       	callq  400cd0 <puts@plt>
  401e97:	e9 8c 00 00 00       	jmpq   401f28 <notify_server+0x1d2>
  401e9c:	85 db                	test   %ebx,%ebx
  401e9e:	74 07                	je     401ea7 <notify_server+0x151>
  401ea0:	ba a9 34 40 00       	mov    $0x4034a9,%edx
  401ea5:	eb 05                	jmp    401eac <notify_server+0x156>
  401ea7:	ba ae 34 40 00       	mov    $0x4034ae,%edx
  401eac:	be 30 36 40 00       	mov    $0x403630,%esi
  401eb1:	bf 01 00 00 00       	mov    $0x1,%edi
  401eb6:	b8 00 00 00 00       	mov    $0x0,%eax
  401ebb:	e8 40 ef ff ff       	callq  400e00 <__printf_chk@plt>
  401ec0:	48 8b 15 99 32 20 00 	mov    0x203299(%rip),%rdx        # 605160 <user_id>
  401ec7:	be ec 34 40 00       	mov    $0x4034ec,%esi
  401ecc:	bf 01 00 00 00       	mov    $0x1,%edi
  401ed1:	b8 00 00 00 00       	mov    $0x0,%eax
  401ed6:	e8 25 ef ff ff       	callq  400e00 <__printf_chk@plt>
  401edb:	48 8b 15 96 32 20 00 	mov    0x203296(%rip),%rdx        # 605178 <course>
  401ee2:	be f9 34 40 00       	mov    $0x4034f9,%esi
  401ee7:	bf 01 00 00 00       	mov    $0x1,%edi
  401eec:	b8 00 00 00 00       	mov    $0x0,%eax
  401ef1:	e8 0a ef ff ff       	callq  400e00 <__printf_chk@plt>
  401ef6:	48 8b 15 73 32 20 00 	mov    0x203273(%rip),%rdx        # 605170 <lab>
  401efd:	be 05 35 40 00       	mov    $0x403505,%esi
  401f02:	bf 01 00 00 00       	mov    $0x1,%edi
  401f07:	b8 00 00 00 00       	mov    $0x0,%eax
  401f0c:	e8 ef ee ff ff       	callq  400e00 <__printf_chk@plt>
  401f11:	48 89 e2             	mov    %rsp,%rdx
  401f14:	be 0e 35 40 00       	mov    $0x40350e,%esi
  401f19:	bf 01 00 00 00       	mov    $0x1,%edi
  401f1e:	b8 00 00 00 00       	mov    $0x0,%eax
  401f23:	e8 d8 ee ff ff       	callq  400e00 <__printf_chk@plt>
  401f28:	48 8b 84 24 08 40 00 	mov    0x4008(%rsp),%rax
  401f2f:	00 
  401f30:	64 48 33 04 25 28 00 	xor    %fs:0x28,%rax
  401f37:	00 00 
  401f39:	74 05                	je     401f40 <notify_server+0x1ea>
  401f3b:	e8 b0 ed ff ff       	callq  400cf0 <__stack_chk_fail@plt>
  401f40:	48 81 c4 10 40 00 00 	add    $0x4010,%rsp
  401f47:	5b                   	pop    %rbx
  401f48:	c3                   	retq   

0000000000401f49 <validate>:
  401f49:	53                   	push   %rbx
  401f4a:	89 fb                	mov    %edi,%ebx
  401f4c:	83 3d d5 35 20 00 00 	cmpl   $0x0,0x2035d5(%rip)        # 605528 <is_checker>
  401f53:	74 6b                	je     401fc0 <validate+0x77>
  401f55:	39 3d c1 35 20 00    	cmp    %edi,0x2035c1(%rip)        # 60551c <vlevel>
  401f5b:	74 14                	je     401f71 <validate+0x28>
  401f5d:	bf 1a 35 40 00       	mov    $0x40351a,%edi
  401f62:	e8 69 ed ff ff       	callq  400cd0 <puts@plt>
  401f67:	b8 00 00 00 00       	mov    $0x0,%eax
  401f6c:	e8 5e fd ff ff       	callq  401ccf <check_fail>
  401f71:	8b 15 a1 35 20 00    	mov    0x2035a1(%rip),%edx        # 605518 <check_level>
  401f77:	39 d7                	cmp    %edx,%edi
  401f79:	74 20                	je     401f9b <validate+0x52>
  401f7b:	89 f9                	mov    %edi,%ecx
  401f7d:	be 58 36 40 00       	mov    $0x403658,%esi
  401f82:	bf 01 00 00 00       	mov    $0x1,%edi
  401f87:	b8 00 00 00 00       	mov    $0x0,%eax
  401f8c:	e8 6f ee ff ff       	callq  400e00 <__printf_chk@plt>
  401f91:	b8 00 00 00 00       	mov    $0x0,%eax
  401f96:	e8 34 fd ff ff       	callq  401ccf <check_fail>
  401f9b:	0f be 15 a6 41 20 00 	movsbl 0x2041a6(%rip),%edx        # 606148 <target_prefix>
  401fa2:	41 b8 40 55 60 00    	mov    $0x605540,%r8d
  401fa8:	89 f9                	mov    %edi,%ecx
  401faa:	be 38 35 40 00       	mov    $0x403538,%esi
  401faf:	bf 01 00 00 00       	mov    $0x1,%edi
  401fb4:	b8 00 00 00 00       	mov    $0x0,%eax
  401fb9:	e8 42 ee ff ff       	callq  400e00 <__printf_chk@plt>
  401fbe:	eb 49                	jmp    402009 <validate+0xc0>
  401fc0:	3b 3d 56 35 20 00    	cmp    0x203556(%rip),%edi        # 60551c <vlevel>
  401fc6:	74 18                	je     401fe0 <validate+0x97>
  401fc8:	bf 1a 35 40 00       	mov    $0x40351a,%edi
  401fcd:	e8 fe ec ff ff       	callq  400cd0 <puts@plt>
  401fd2:	89 de                	mov    %ebx,%esi
  401fd4:	bf 00 00 00 00       	mov    $0x0,%edi
  401fd9:	e8 78 fd ff ff       	callq  401d56 <notify_server>
  401fde:	eb 29                	jmp    402009 <validate+0xc0>
  401fe0:	0f be 0d 61 41 20 00 	movsbl 0x204161(%rip),%ecx        # 606148 <target_prefix>
  401fe7:	89 fa                	mov    %edi,%edx
  401fe9:	be 80 36 40 00       	mov    $0x403680,%esi
  401fee:	bf 01 00 00 00       	mov    $0x1,%edi
  401ff3:	b8 00 00 00 00       	mov    $0x0,%eax
  401ff8:	e8 03 ee ff ff       	callq  400e00 <__printf_chk@plt>
  401ffd:	89 de                	mov    %ebx,%esi
  401fff:	bf 01 00 00 00       	mov    $0x1,%edi
  402004:	e8 4d fd ff ff       	callq  401d56 <notify_server>
  402009:	5b                   	pop    %rbx
  40200a:	c3                   	retq   

000000000040200b <fail>:
  40200b:	48 83 ec 08          	sub    $0x8,%rsp
  40200f:	83 3d 12 35 20 00 00 	cmpl   $0x0,0x203512(%rip)        # 605528 <is_checker>
  402016:	74 0a                	je     402022 <fail+0x17>
  402018:	b8 00 00 00 00       	mov    $0x0,%eax
  40201d:	e8 ad fc ff ff       	callq  401ccf <check_fail>
  402022:	89 fe                	mov    %edi,%esi
  402024:	bf 00 00 00 00       	mov    $0x0,%edi
  402029:	e8 28 fd ff ff       	callq  401d56 <notify_server>
  40202e:	48 83 c4 08          	add    $0x8,%rsp
  402032:	c3                   	retq   

0000000000402033 <bushandler>:
  402033:	48 83 ec 08          	sub    $0x8,%rsp
  402037:	83 3d ea 34 20 00 00 	cmpl   $0x0,0x2034ea(%rip)        # 605528 <is_checker>
  40203e:	74 14                	je     402054 <bushandler+0x21>
  402040:	bf 4d 35 40 00       	mov    $0x40354d,%edi
  402045:	e8 86 ec ff ff       	callq  400cd0 <puts@plt>
  40204a:	b8 00 00 00 00       	mov    $0x0,%eax
  40204f:	e8 7b fc ff ff       	callq  401ccf <check_fail>
  402054:	bf b8 36 40 00       	mov    $0x4036b8,%edi
  402059:	e8 72 ec ff ff       	callq  400cd0 <puts@plt>
  40205e:	bf 57 35 40 00       	mov    $0x403557,%edi
  402063:	e8 68 ec ff ff       	callq  400cd0 <puts@plt>
  402068:	be 00 00 00 00       	mov    $0x0,%esi
  40206d:	bf 00 00 00 00       	mov    $0x0,%edi
  402072:	e8 df fc ff ff       	callq  401d56 <notify_server>
  402077:	bf 01 00 00 00       	mov    $0x1,%edi
  40207c:	e8 cf ed ff ff       	callq  400e50 <exit@plt>

0000000000402081 <seghandler>:
  402081:	48 83 ec 08          	sub    $0x8,%rsp
  402085:	83 3d 9c 34 20 00 00 	cmpl   $0x0,0x20349c(%rip)        # 605528 <is_checker>
  40208c:	74 14                	je     4020a2 <seghandler+0x21>
  40208e:	bf 6d 35 40 00       	mov    $0x40356d,%edi
  402093:	e8 38 ec ff ff       	callq  400cd0 <puts@plt>
  402098:	b8 00 00 00 00       	mov    $0x0,%eax
  40209d:	e8 2d fc ff ff       	callq  401ccf <check_fail>
  4020a2:	bf d8 36 40 00       	mov    $0x4036d8,%edi
  4020a7:	e8 24 ec ff ff       	callq  400cd0 <puts@plt>
  4020ac:	bf 57 35 40 00       	mov    $0x403557,%edi
  4020b1:	e8 1a ec ff ff       	callq  400cd0 <puts@plt>
  4020b6:	be 00 00 00 00       	mov    $0x0,%esi
  4020bb:	bf 00 00 00 00       	mov    $0x0,%edi
  4020c0:	e8 91 fc ff ff       	callq  401d56 <notify_server>
  4020c5:	bf 01 00 00 00       	mov    $0x1,%edi
  4020ca:	e8 81 ed ff ff       	callq  400e50 <exit@plt>

00000000004020cf <illegalhandler>:
  4020cf:	48 83 ec 08          	sub    $0x8,%rsp
  4020d3:	83 3d 4e 34 20 00 00 	cmpl   $0x0,0x20344e(%rip)        # 605528 <is_checker>
  4020da:	74 14                	je     4020f0 <illegalhandler+0x21>
  4020dc:	bf 80 35 40 00       	mov    $0x403580,%edi
  4020e1:	e8 ea eb ff ff       	callq  400cd0 <puts@plt>
  4020e6:	b8 00 00 00 00       	mov    $0x0,%eax
  4020eb:	e8 df fb ff ff       	callq  401ccf <check_fail>
  4020f0:	bf 00 37 40 00       	mov    $0x403700,%edi
  4020f5:	e8 d6 eb ff ff       	callq  400cd0 <puts@plt>
  4020fa:	bf 57 35 40 00       	mov    $0x403557,%edi
  4020ff:	e8 cc eb ff ff       	callq  400cd0 <puts@plt>
  402104:	be 00 00 00 00       	mov    $0x0,%esi
  402109:	bf 00 00 00 00       	mov    $0x0,%edi
  40210e:	e8 43 fc ff ff       	callq  401d56 <notify_server>
  402113:	bf 01 00 00 00       	mov    $0x1,%edi
  402118:	e8 33 ed ff ff       	callq  400e50 <exit@plt>

000000000040211d <sigalrmhandler>:
  40211d:	48 83 ec 08          	sub    $0x8,%rsp
  402121:	83 3d 00 34 20 00 00 	cmpl   $0x0,0x203400(%rip)        # 605528 <is_checker>
  402128:	74 14                	je     40213e <sigalrmhandler+0x21>
  40212a:	bf 94 35 40 00       	mov    $0x403594,%edi
  40212f:	e8 9c eb ff ff       	callq  400cd0 <puts@plt>
  402134:	b8 00 00 00 00       	mov    $0x0,%eax
  402139:	e8 91 fb ff ff       	callq  401ccf <check_fail>
  40213e:	ba 05 00 00 00       	mov    $0x5,%edx
  402143:	be 30 37 40 00       	mov    $0x403730,%esi
  402148:	bf 01 00 00 00       	mov    $0x1,%edi
  40214d:	b8 00 00 00 00       	mov    $0x0,%eax
  402152:	e8 a9 ec ff ff       	callq  400e00 <__printf_chk@plt>
  402157:	be 00 00 00 00       	mov    $0x0,%esi
  40215c:	bf 00 00 00 00       	mov    $0x0,%edi
  402161:	e8 f0 fb ff ff       	callq  401d56 <notify_server>
  402166:	bf 01 00 00 00       	mov    $0x1,%edi
  40216b:	e8 e0 ec ff ff       	callq  400e50 <exit@plt>

0000000000402170 <launch>:
  402170:	55                   	push   %rbp
  402171:	48 89 e5             	mov    %rsp,%rbp
  402174:	48 83 ec 10          	sub    $0x10,%rsp
  402178:	48 89 fa             	mov    %rdi,%rdx
  40217b:	64 48 8b 04 25 28 00 	mov    %fs:0x28,%rax
  402182:	00 00 
  402184:	48 89 45 f8          	mov    %rax,-0x8(%rbp)
  402188:	31 c0                	xor    %eax,%eax
  40218a:	48 8d 47 1e          	lea    0x1e(%rdi),%rax
  40218e:	48 83 e0 f0          	and    $0xfffffffffffffff0,%rax
  402192:	48 29 c4             	sub    %rax,%rsp
  402195:	48 8d 7c 24 0f       	lea    0xf(%rsp),%rdi
  40219a:	48 83 e7 f0          	and    $0xfffffffffffffff0,%rdi
  40219e:	be f4 00 00 00       	mov    $0xf4,%esi
  4021a3:	e8 68 eb ff ff       	callq  400d10 <memset@plt>
  4021a8:	48 8b 05 11 33 20 00 	mov    0x203311(%rip),%rax        # 6054c0 <stdin@@GLIBC_2.2.5>
  4021af:	48 39 05 5a 33 20 00 	cmp    %rax,0x20335a(%rip)        # 605510 <infile>
  4021b6:	75 14                	jne    4021cc <launch+0x5c>
  4021b8:	be 9c 35 40 00       	mov    $0x40359c,%esi
  4021bd:	bf 01 00 00 00       	mov    $0x1,%edi
  4021c2:	b8 00 00 00 00       	mov    $0x0,%eax
  4021c7:	e8 34 ec ff ff       	callq  400e00 <__printf_chk@plt>
  4021cc:	c7 05 46 33 20 00 00 	movl   $0x0,0x203346(%rip)        # 60551c <vlevel>
  4021d3:	00 00 00 
  4021d6:	b8 00 00 00 00       	mov    $0x0,%eax
  4021db:	e8 3a f9 ff ff       	callq  401b1a <test>
  4021e0:	83 3d 41 33 20 00 00 	cmpl   $0x0,0x203341(%rip)        # 605528 <is_checker>
  4021e7:	74 14                	je     4021fd <launch+0x8d>
  4021e9:	bf a9 35 40 00       	mov    $0x4035a9,%edi
  4021ee:	e8 dd ea ff ff       	callq  400cd0 <puts@plt>
  4021f3:	b8 00 00 00 00       	mov    $0x0,%eax
  4021f8:	e8 d2 fa ff ff       	callq  401ccf <check_fail>
  4021fd:	bf b4 35 40 00       	mov    $0x4035b4,%edi
  402202:	e8 c9 ea ff ff       	callq  400cd0 <puts@plt>
  402207:	48 8b 45 f8          	mov    -0x8(%rbp),%rax
  40220b:	64 48 33 04 25 28 00 	xor    %fs:0x28,%rax
  402212:	00 00 
  402214:	74 05                	je     40221b <launch+0xab>
  402216:	e8 d5 ea ff ff       	callq  400cf0 <__stack_chk_fail@plt>
  40221b:	c9                   	leaveq 
  40221c:	c3                   	retq   

000000000040221d <stable_launch>:
  40221d:	53                   	push   %rbx
  40221e:	48 89 3d e3 32 20 00 	mov    %rdi,0x2032e3(%rip)        # 605508 <global_offset>
  402225:	41 b9 00 00 00 00    	mov    $0x0,%r9d
  40222b:	41 b8 00 00 00 00    	mov    $0x0,%r8d
  402231:	b9 32 01 00 00       	mov    $0x132,%ecx
  402236:	ba 07 00 00 00       	mov    $0x7,%edx
  40223b:	be 00 00 10 00       	mov    $0x100000,%esi
  402240:	bf 00 60 58 55       	mov    $0x55586000,%edi
  402245:	e8 b6 ea ff ff       	callq  400d00 <mmap@plt>
  40224a:	48 89 c3             	mov    %rax,%rbx
  40224d:	48 3d 00 60 58 55    	cmp    $0x55586000,%rax
  402253:	74 37                	je     40228c <stable_launch+0x6f>
  402255:	be 00 00 10 00       	mov    $0x100000,%esi
  40225a:	48 89 c7             	mov    %rax,%rdi
  40225d:	e8 8e eb ff ff       	callq  400df0 <munmap@plt>
  402262:	b9 00 60 58 55       	mov    $0x55586000,%ecx
  402267:	ba 68 37 40 00       	mov    $0x403768,%edx
  40226c:	be 01 00 00 00       	mov    $0x1,%esi
  402271:	48 8b 3d 68 32 20 00 	mov    0x203268(%rip),%rdi        # 6054e0 <stderr@@GLIBC_2.2.5>
  402278:	b8 00 00 00 00       	mov    $0x0,%eax
  40227d:	e8 ee eb ff ff       	callq  400e70 <__fprintf_chk@plt>
  402282:	bf 01 00 00 00       	mov    $0x1,%edi
  402287:	e8 c4 eb ff ff       	callq  400e50 <exit@plt>
  40228c:	48 8d 90 f8 ff 0f 00 	lea    0xffff8(%rax),%rdx
  402293:	48 89 15 b6 3e 20 00 	mov    %rdx,0x203eb6(%rip)        # 606150 <stack_top>
  40229a:	48 89 e0             	mov    %rsp,%rax
  40229d:	48 89 d4             	mov    %rdx,%rsp
  4022a0:	48 89 c2             	mov    %rax,%rdx
  4022a3:	48 89 15 56 32 20 00 	mov    %rdx,0x203256(%rip)        # 605500 <global_save_stack>
  4022aa:	48 8b 3d 57 32 20 00 	mov    0x203257(%rip),%rdi        # 605508 <global_offset>
  4022b1:	e8 ba fe ff ff       	callq  402170 <launch>
  4022b6:	48 8b 05 43 32 20 00 	mov    0x203243(%rip),%rax        # 605500 <global_save_stack>
  4022bd:	48 89 c4             	mov    %rax,%rsp
  4022c0:	be 00 00 10 00       	mov    $0x100000,%esi
  4022c5:	48 89 df             	mov    %rbx,%rdi
  4022c8:	e8 23 eb ff ff       	callq  400df0 <munmap@plt>
  4022cd:	5b                   	pop    %rbx
  4022ce:	c3                   	retq   

00000000004022cf <rio_readinitb>:
  4022cf:	89 37                	mov    %esi,(%rdi)
  4022d1:	c7 47 04 00 00 00 00 	movl   $0x0,0x4(%rdi)
  4022d8:	48 8d 47 10          	lea    0x10(%rdi),%rax
  4022dc:	48 89 47 08          	mov    %rax,0x8(%rdi)
  4022e0:	c3                   	retq   

00000000004022e1 <sigalrm_handler>:
  4022e1:	48 83 ec 08          	sub    $0x8,%rsp
  4022e5:	b9 00 00 00 00       	mov    $0x0,%ecx
  4022ea:	ba a0 37 40 00       	mov    $0x4037a0,%edx
  4022ef:	be 01 00 00 00       	mov    $0x1,%esi
  4022f4:	48 8b 3d e5 31 20 00 	mov    0x2031e5(%rip),%rdi        # 6054e0 <stderr@@GLIBC_2.2.5>
  4022fb:	b8 00 00 00 00       	mov    $0x0,%eax
  402300:	e8 6b eb ff ff       	callq  400e70 <__fprintf_chk@plt>
  402305:	bf 01 00 00 00       	mov    $0x1,%edi
  40230a:	e8 41 eb ff ff       	callq  400e50 <exit@plt>

000000000040230f <rio_writen>:
  40230f:	41 55                	push   %r13
  402311:	41 54                	push   %r12
  402313:	55                   	push   %rbp
  402314:	53                   	push   %rbx
  402315:	48 83 ec 08          	sub    $0x8,%rsp
  402319:	41 89 fc             	mov    %edi,%r12d
  40231c:	48 89 f5             	mov    %rsi,%rbp
  40231f:	49 89 d5             	mov    %rdx,%r13
  402322:	48 89 d3             	mov    %rdx,%rbx
  402325:	eb 28                	jmp    40234f <rio_writen+0x40>
  402327:	48 89 da             	mov    %rbx,%rdx
  40232a:	48 89 ee             	mov    %rbp,%rsi
  40232d:	44 89 e7             	mov    %r12d,%edi
  402330:	e8 ab e9 ff ff       	callq  400ce0 <write@plt>
  402335:	48 85 c0             	test   %rax,%rax
  402338:	7f 0f                	jg     402349 <rio_writen+0x3a>
  40233a:	e8 51 e9 ff ff       	callq  400c90 <__errno_location@plt>
  40233f:	83 38 04             	cmpl   $0x4,(%rax)
  402342:	75 15                	jne    402359 <rio_writen+0x4a>
  402344:	b8 00 00 00 00       	mov    $0x0,%eax
  402349:	48 29 c3             	sub    %rax,%rbx
  40234c:	48 01 c5             	add    %rax,%rbp
  40234f:	48 85 db             	test   %rbx,%rbx
  402352:	75 d3                	jne    402327 <rio_writen+0x18>
  402354:	4c 89 e8             	mov    %r13,%rax
  402357:	eb 07                	jmp    402360 <rio_writen+0x51>
  402359:	48 c7 c0 ff ff ff ff 	mov    $0xffffffffffffffff,%rax
  402360:	48 83 c4 08          	add    $0x8,%rsp
  402364:	5b                   	pop    %rbx
  402365:	5d                   	pop    %rbp
  402366:	41 5c                	pop    %r12
  402368:	41 5d                	pop    %r13
  40236a:	c3                   	retq   

000000000040236b <rio_read>:
  40236b:	41 55                	push   %r13
  40236d:	41 54                	push   %r12
  40236f:	55                   	push   %rbp
  402370:	53                   	push   %rbx
  402371:	48 83 ec 08          	sub    $0x8,%rsp
  402375:	48 89 fb             	mov    %rdi,%rbx
  402378:	49 89 f5             	mov    %rsi,%r13
  40237b:	49 89 d4             	mov    %rdx,%r12
  40237e:	eb 2e                	jmp    4023ae <rio_read+0x43>
  402380:	48 8d 6b 10          	lea    0x10(%rbx),%rbp
  402384:	8b 3b                	mov    (%rbx),%edi
  402386:	ba 00 20 00 00       	mov    $0x2000,%edx
  40238b:	48 89 ee             	mov    %rbp,%rsi
  40238e:	e8 ad e9 ff ff       	callq  400d40 <read@plt>
  402393:	89 43 04             	mov    %eax,0x4(%rbx)
  402396:	85 c0                	test   %eax,%eax
  402398:	79 0c                	jns    4023a6 <rio_read+0x3b>
  40239a:	e8 f1 e8 ff ff       	callq  400c90 <__errno_location@plt>
  40239f:	83 38 04             	cmpl   $0x4,(%rax)
  4023a2:	74 0a                	je     4023ae <rio_read+0x43>
  4023a4:	eb 37                	jmp    4023dd <rio_read+0x72>
  4023a6:	85 c0                	test   %eax,%eax
  4023a8:	74 3c                	je     4023e6 <rio_read+0x7b>
  4023aa:	48 89 6b 08          	mov    %rbp,0x8(%rbx)
  4023ae:	8b 6b 04             	mov    0x4(%rbx),%ebp
  4023b1:	85 ed                	test   %ebp,%ebp
  4023b3:	7e cb                	jle    402380 <rio_read+0x15>
  4023b5:	89 e8                	mov    %ebp,%eax
  4023b7:	49 39 c4             	cmp    %rax,%r12
  4023ba:	77 03                	ja     4023bf <rio_read+0x54>
  4023bc:	44 89 e5             	mov    %r12d,%ebp
  4023bf:	4c 63 e5             	movslq %ebp,%r12
  4023c2:	48 8b 73 08          	mov    0x8(%rbx),%rsi
  4023c6:	4c 89 e2             	mov    %r12,%rdx
  4023c9:	4c 89 ef             	mov    %r13,%rdi
  4023cc:	e8 cf e9 ff ff       	callq  400da0 <memcpy@plt>
  4023d1:	4c 01 63 08          	add    %r12,0x8(%rbx)
  4023d5:	29 6b 04             	sub    %ebp,0x4(%rbx)
  4023d8:	4c 89 e0             	mov    %r12,%rax
  4023db:	eb 0e                	jmp    4023eb <rio_read+0x80>
  4023dd:	48 c7 c0 ff ff ff ff 	mov    $0xffffffffffffffff,%rax
  4023e4:	eb 05                	jmp    4023eb <rio_read+0x80>
  4023e6:	b8 00 00 00 00       	mov    $0x0,%eax
  4023eb:	48 83 c4 08          	add    $0x8,%rsp
  4023ef:	5b                   	pop    %rbx
  4023f0:	5d                   	pop    %rbp
  4023f1:	41 5c                	pop    %r12
  4023f3:	41 5d                	pop    %r13
  4023f5:	c3                   	retq   

00000000004023f6 <rio_readlineb>:
  4023f6:	41 55                	push   %r13
  4023f8:	41 54                	push   %r12
  4023fa:	55                   	push   %rbp
  4023fb:	53                   	push   %rbx
  4023fc:	48 83 ec 18          	sub    $0x18,%rsp
  402400:	49 89 fd             	mov    %rdi,%r13
  402403:	48 89 f5             	mov    %rsi,%rbp
  402406:	49 89 d4             	mov    %rdx,%r12
  402409:	64 48 8b 04 25 28 00 	mov    %fs:0x28,%rax
  402410:	00 00 
  402412:	48 89 44 24 08       	mov    %rax,0x8(%rsp)
  402417:	31 c0                	xor    %eax,%eax
  402419:	bb 01 00 00 00       	mov    $0x1,%ebx
  40241e:	eb 3f                	jmp    40245f <rio_readlineb+0x69>
  402420:	ba 01 00 00 00       	mov    $0x1,%edx
  402425:	48 8d 74 24 07       	lea    0x7(%rsp),%rsi
  40242a:	4c 89 ef             	mov    %r13,%rdi
  40242d:	e8 39 ff ff ff       	callq  40236b <rio_read>
  402432:	83 f8 01             	cmp    $0x1,%eax
  402435:	75 15                	jne    40244c <rio_readlineb+0x56>
  402437:	48 8d 45 01          	lea    0x1(%rbp),%rax
  40243b:	0f b6 54 24 07       	movzbl 0x7(%rsp),%edx
  402440:	88 55 00             	mov    %dl,0x0(%rbp)
  402443:	80 7c 24 07 0a       	cmpb   $0xa,0x7(%rsp)
  402448:	75 0e                	jne    402458 <rio_readlineb+0x62>
  40244a:	eb 1a                	jmp    402466 <rio_readlineb+0x70>
  40244c:	85 c0                	test   %eax,%eax
  40244e:	75 22                	jne    402472 <rio_readlineb+0x7c>
  402450:	48 83 fb 01          	cmp    $0x1,%rbx
  402454:	75 13                	jne    402469 <rio_readlineb+0x73>
  402456:	eb 23                	jmp    40247b <rio_readlineb+0x85>
  402458:	48 83 c3 01          	add    $0x1,%rbx
  40245c:	48 89 c5             	mov    %rax,%rbp
  40245f:	4c 39 e3             	cmp    %r12,%rbx
  402462:	72 bc                	jb     402420 <rio_readlineb+0x2a>
  402464:	eb 03                	jmp    402469 <rio_readlineb+0x73>
  402466:	48 89 c5             	mov    %rax,%rbp
  402469:	c6 45 00 00          	movb   $0x0,0x0(%rbp)
  40246d:	48 89 d8             	mov    %rbx,%rax
  402470:	eb 0e                	jmp    402480 <rio_readlineb+0x8a>
  402472:	48 c7 c0 ff ff ff ff 	mov    $0xffffffffffffffff,%rax
  402479:	eb 05                	jmp    402480 <rio_readlineb+0x8a>
  40247b:	b8 00 00 00 00       	mov    $0x0,%eax
  402480:	48 8b 4c 24 08       	mov    0x8(%rsp),%rcx
  402485:	64 48 33 0c 25 28 00 	xor    %fs:0x28,%rcx
  40248c:	00 00 
  40248e:	74 05                	je     402495 <rio_readlineb+0x9f>
  402490:	e8 5b e8 ff ff       	callq  400cf0 <__stack_chk_fail@plt>
  402495:	48 83 c4 18          	add    $0x18,%rsp
  402499:	5b                   	pop    %rbx
  40249a:	5d                   	pop    %rbp
  40249b:	41 5c                	pop    %r12
  40249d:	41 5d                	pop    %r13
  40249f:	c3                   	retq   

00000000004024a0 <urlencode>:
  4024a0:	41 54                	push   %r12
  4024a2:	55                   	push   %rbp
  4024a3:	53                   	push   %rbx
  4024a4:	48 83 ec 10          	sub    $0x10,%rsp
  4024a8:	48 89 fb             	mov    %rdi,%rbx
  4024ab:	48 89 f5             	mov    %rsi,%rbp
  4024ae:	64 48 8b 04 25 28 00 	mov    %fs:0x28,%rax
  4024b5:	00 00 
  4024b7:	48 89 44 24 08       	mov    %rax,0x8(%rsp)
  4024bc:	31 c0                	xor    %eax,%eax
  4024be:	48 c7 c1 ff ff ff ff 	mov    $0xffffffffffffffff,%rcx
  4024c5:	f2 ae                	repnz scas %es:(%rdi),%al
  4024c7:	48 f7 d1             	not    %rcx
  4024ca:	8d 41 ff             	lea    -0x1(%rcx),%eax
  4024cd:	e9 aa 00 00 00       	jmpq   40257c <urlencode+0xdc>
  4024d2:	44 0f b6 03          	movzbl (%rbx),%r8d
  4024d6:	41 80 f8 2a          	cmp    $0x2a,%r8b
  4024da:	0f 94 c2             	sete   %dl
  4024dd:	41 80 f8 2d          	cmp    $0x2d,%r8b
  4024e1:	0f 94 c0             	sete   %al
  4024e4:	08 c2                	or     %al,%dl
  4024e6:	75 24                	jne    40250c <urlencode+0x6c>
  4024e8:	41 80 f8 2e          	cmp    $0x2e,%r8b
  4024ec:	74 1e                	je     40250c <urlencode+0x6c>
  4024ee:	41 80 f8 5f          	cmp    $0x5f,%r8b
  4024f2:	74 18                	je     40250c <urlencode+0x6c>
  4024f4:	41 8d 40 d0          	lea    -0x30(%r8),%eax
  4024f8:	3c 09                	cmp    $0x9,%al
  4024fa:	76 10                	jbe    40250c <urlencode+0x6c>
  4024fc:	41 8d 40 bf          	lea    -0x41(%r8),%eax
  402500:	3c 19                	cmp    $0x19,%al
  402502:	76 08                	jbe    40250c <urlencode+0x6c>
  402504:	41 8d 40 9f          	lea    -0x61(%r8),%eax
  402508:	3c 19                	cmp    $0x19,%al
  40250a:	77 0a                	ja     402516 <urlencode+0x76>
  40250c:	44 88 45 00          	mov    %r8b,0x0(%rbp)
  402510:	48 8d 6d 01          	lea    0x1(%rbp),%rbp
  402514:	eb 5f                	jmp    402575 <urlencode+0xd5>
  402516:	41 80 f8 20          	cmp    $0x20,%r8b
  40251a:	75 0a                	jne    402526 <urlencode+0x86>
  40251c:	c6 45 00 2b          	movb   $0x2b,0x0(%rbp)
  402520:	48 8d 6d 01          	lea    0x1(%rbp),%rbp
  402524:	eb 4f                	jmp    402575 <urlencode+0xd5>
  402526:	41 8d 40 e0          	lea    -0x20(%r8),%eax
  40252a:	3c 5f                	cmp    $0x5f,%al
  40252c:	0f 96 c2             	setbe  %dl
  40252f:	41 80 f8 09          	cmp    $0x9,%r8b
  402533:	0f 94 c0             	sete   %al
  402536:	08 c2                	or     %al,%dl
  402538:	74 50                	je     40258a <urlencode+0xea>
  40253a:	45 0f b6 c0          	movzbl %r8b,%r8d
  40253e:	b9 38 38 40 00       	mov    $0x403838,%ecx
  402543:	ba 08 00 00 00       	mov    $0x8,%edx
  402548:	be 01 00 00 00       	mov    $0x1,%esi
  40254d:	48 89 e7             	mov    %rsp,%rdi
  402550:	b8 00 00 00 00       	mov    $0x0,%eax
  402555:	e8 26 e9 ff ff       	callq  400e80 <__sprintf_chk@plt>
  40255a:	0f b6 04 24          	movzbl (%rsp),%eax
  40255e:	88 45 00             	mov    %al,0x0(%rbp)
  402561:	0f b6 44 24 01       	movzbl 0x1(%rsp),%eax
  402566:	88 45 01             	mov    %al,0x1(%rbp)
  402569:	0f b6 44 24 02       	movzbl 0x2(%rsp),%eax
  40256e:	88 45 02             	mov    %al,0x2(%rbp)
  402571:	48 8d 6d 03          	lea    0x3(%rbp),%rbp
  402575:	48 83 c3 01          	add    $0x1,%rbx
  402579:	44 89 e0             	mov    %r12d,%eax
  40257c:	44 8d 60 ff          	lea    -0x1(%rax),%r12d
  402580:	85 c0                	test   %eax,%eax
  402582:	0f 85 4a ff ff ff    	jne    4024d2 <urlencode+0x32>
  402588:	eb 05                	jmp    40258f <urlencode+0xef>
  40258a:	b8 ff ff ff ff       	mov    $0xffffffff,%eax
  40258f:	48 8b 74 24 08       	mov    0x8(%rsp),%rsi
  402594:	64 48 33 34 25 28 00 	xor    %fs:0x28,%rsi
  40259b:	00 00 
  40259d:	74 05                	je     4025a4 <urlencode+0x104>
  40259f:	e8 4c e7 ff ff       	callq  400cf0 <__stack_chk_fail@plt>
  4025a4:	48 83 c4 10          	add    $0x10,%rsp
  4025a8:	5b                   	pop    %rbx
  4025a9:	5d                   	pop    %rbp
  4025aa:	41 5c                	pop    %r12
  4025ac:	c3                   	retq   

00000000004025ad <submitr>:
  4025ad:	41 57                	push   %r15
  4025af:	41 56                	push   %r14
  4025b1:	41 55                	push   %r13
  4025b3:	41 54                	push   %r12
  4025b5:	55                   	push   %rbp
  4025b6:	53                   	push   %rbx
  4025b7:	48 81 ec 58 a0 00 00 	sub    $0xa058,%rsp
  4025be:	49 89 fc             	mov    %rdi,%r12
  4025c1:	89 74 24 04          	mov    %esi,0x4(%rsp)
  4025c5:	49 89 d7             	mov    %rdx,%r15
  4025c8:	49 89 ce             	mov    %rcx,%r14
  4025cb:	4c 89 44 24 08       	mov    %r8,0x8(%rsp)
  4025d0:	4d 89 cd             	mov    %r9,%r13
  4025d3:	48 8b 9c 24 90 a0 00 	mov    0xa090(%rsp),%rbx
  4025da:	00 
  4025db:	64 48 8b 04 25 28 00 	mov    %fs:0x28,%rax
  4025e2:	00 00 
  4025e4:	48 89 84 24 48 a0 00 	mov    %rax,0xa048(%rsp)
  4025eb:	00 
  4025ec:	31 c0                	xor    %eax,%eax
  4025ee:	c7 44 24 1c 00 00 00 	movl   $0x0,0x1c(%rsp)
  4025f5:	00 
  4025f6:	ba 00 00 00 00       	mov    $0x0,%edx
  4025fb:	be 01 00 00 00       	mov    $0x1,%esi
  402600:	bf 02 00 00 00       	mov    $0x2,%edi
  402605:	e8 86 e8 ff ff       	callq  400e90 <socket@plt>
  40260a:	85 c0                	test   %eax,%eax
  40260c:	79 4e                	jns    40265c <submitr+0xaf>
  40260e:	48 b8 45 72 72 6f 72 	movabs $0x43203a726f727245,%rax
  402615:	3a 20 43 
  402618:	48 89 03             	mov    %rax,(%rbx)
  40261b:	48 b8 6c 69 65 6e 74 	movabs $0x6e7520746e65696c,%rax
  402622:	20 75 6e 
  402625:	48 89 43 08          	mov    %rax,0x8(%rbx)
  402629:	48 b8 61 62 6c 65 20 	movabs $0x206f7420656c6261,%rax
  402630:	74 6f 20 
  402633:	48 89 43 10          	mov    %rax,0x10(%rbx)
  402637:	48 b8 63 72 65 61 74 	movabs $0x7320657461657263,%rax
  40263e:	65 20 73 
  402641:	48 89 43 18          	mov    %rax,0x18(%rbx)
  402645:	c7 43 20 6f 63 6b 65 	movl   $0x656b636f,0x20(%rbx)
  40264c:	66 c7 43 24 74 00    	movw   $0x74,0x24(%rbx)
  402652:	b8 ff ff ff ff       	mov    $0xffffffff,%eax
  402657:	e9 97 06 00 00       	jmpq   402cf3 <submitr+0x746>
  40265c:	89 c5                	mov    %eax,%ebp
  40265e:	4c 89 e7             	mov    %r12,%rdi
  402661:	e8 0a e7 ff ff       	callq  400d70 <gethostbyname@plt>
  402666:	48 85 c0             	test   %rax,%rax
  402669:	75 67                	jne    4026d2 <submitr+0x125>
  40266b:	48 b8 45 72 72 6f 72 	movabs $0x44203a726f727245,%rax
  402672:	3a 20 44 
  402675:	48 89 03             	mov    %rax,(%rbx)
  402678:	48 b8 4e 53 20 69 73 	movabs $0x6e7520736920534e,%rax
  40267f:	20 75 6e 
  402682:	48 89 43 08          	mov    %rax,0x8(%rbx)
  402686:	48 b8 61 62 6c 65 20 	movabs $0x206f7420656c6261,%rax
  40268d:	74 6f 20 
  402690:	48 89 43 10          	mov    %rax,0x10(%rbx)
  402694:	48 b8 72 65 73 6f 6c 	movabs $0x2065766c6f736572,%rax
  40269b:	76 65 20 
  40269e:	48 89 43 18          	mov    %rax,0x18(%rbx)
  4026a2:	48 b8 73 65 72 76 65 	movabs $0x6120726576726573,%rax
  4026a9:	72 20 61 
  4026ac:	48 89 43 20          	mov    %rax,0x20(%rbx)
  4026b0:	c7 43 28 64 64 72 65 	movl   $0x65726464,0x28(%rbx)
  4026b7:	66 c7 43 2c 73 73    	movw   $0x7373,0x2c(%rbx)
  4026bd:	c6 43 2e 00          	movb   $0x0,0x2e(%rbx)
  4026c1:	89 ef                	mov    %ebp,%edi
  4026c3:	e8 68 e6 ff ff       	callq  400d30 <close@plt>
  4026c8:	b8 ff ff ff ff       	mov    $0xffffffff,%eax
  4026cd:	e9 21 06 00 00       	jmpq   402cf3 <submitr+0x746>
  4026d2:	48 c7 44 24 20 00 00 	movq   $0x0,0x20(%rsp)
  4026d9:	00 00 
  4026db:	48 c7 44 24 28 00 00 	movq   $0x0,0x28(%rsp)
  4026e2:	00 00 
  4026e4:	66 c7 44 24 20 02 00 	movw   $0x2,0x20(%rsp)
  4026eb:	48 63 50 14          	movslq 0x14(%rax),%rdx
  4026ef:	48 8b 40 18          	mov    0x18(%rax),%rax
  4026f3:	48 8b 30             	mov    (%rax),%rsi
  4026f6:	48 8d 7c 24 24       	lea    0x24(%rsp),%rdi
  4026fb:	b9 0c 00 00 00       	mov    $0xc,%ecx
  402700:	e8 7b e6 ff ff       	callq  400d80 <__memmove_chk@plt>
  402705:	0f b7 44 24 04       	movzwl 0x4(%rsp),%eax
  40270a:	66 c1 c8 08          	ror    $0x8,%ax
  40270e:	66 89 44 24 22       	mov    %ax,0x22(%rsp)
  402713:	ba 10 00 00 00       	mov    $0x10,%edx
  402718:	48 8d 74 24 20       	lea    0x20(%rsp),%rsi
  40271d:	89 ef                	mov    %ebp,%edi
  40271f:	e8 3c e7 ff ff       	callq  400e60 <connect@plt>
  402724:	85 c0                	test   %eax,%eax
  402726:	79 59                	jns    402781 <submitr+0x1d4>
  402728:	48 b8 45 72 72 6f 72 	movabs $0x55203a726f727245,%rax
  40272f:	3a 20 55 
  402732:	48 89 03             	mov    %rax,(%rbx)
  402735:	48 b8 6e 61 62 6c 65 	movabs $0x6f7420656c62616e,%rax
  40273c:	20 74 6f 
  40273f:	48 89 43 08          	mov    %rax,0x8(%rbx)
  402743:	48 b8 20 63 6f 6e 6e 	movabs $0x7463656e6e6f6320,%rax
  40274a:	65 63 74 
  40274d:	48 89 43 10          	mov    %rax,0x10(%rbx)
  402751:	48 b8 20 74 6f 20 74 	movabs $0x20656874206f7420,%rax
  402758:	68 65 20 
  40275b:	48 89 43 18          	mov    %rax,0x18(%rbx)
  40275f:	c7 43 20 73 65 72 76 	movl   $0x76726573,0x20(%rbx)
  402766:	66 c7 43 24 65 72    	movw   $0x7265,0x24(%rbx)
  40276c:	c6 43 26 00          	movb   $0x0,0x26(%rbx)
  402770:	89 ef                	mov    %ebp,%edi
  402772:	e8 b9 e5 ff ff       	callq  400d30 <close@plt>
  402777:	b8 ff ff ff ff       	mov    $0xffffffff,%eax
  40277c:	e9 72 05 00 00       	jmpq   402cf3 <submitr+0x746>
  402781:	48 c7 c6 ff ff ff ff 	mov    $0xffffffffffffffff,%rsi
  402788:	b8 00 00 00 00       	mov    $0x0,%eax
  40278d:	48 89 f1             	mov    %rsi,%rcx
  402790:	4c 89 ef             	mov    %r13,%rdi
  402793:	f2 ae                	repnz scas %es:(%rdi),%al
  402795:	48 f7 d1             	not    %rcx
  402798:	48 89 ca             	mov    %rcx,%rdx
  40279b:	48 89 f1             	mov    %rsi,%rcx
  40279e:	4c 89 ff             	mov    %r15,%rdi
  4027a1:	f2 ae                	repnz scas %es:(%rdi),%al
  4027a3:	48 f7 d1             	not    %rcx
  4027a6:	49 89 c8             	mov    %rcx,%r8
  4027a9:	48 89 f1             	mov    %rsi,%rcx
  4027ac:	4c 89 f7             	mov    %r14,%rdi
  4027af:	f2 ae                	repnz scas %es:(%rdi),%al
  4027b1:	48 f7 d1             	not    %rcx
  4027b4:	4d 8d 44 08 fe       	lea    -0x2(%r8,%rcx,1),%r8
  4027b9:	48 89 f1             	mov    %rsi,%rcx
  4027bc:	48 8b 7c 24 08       	mov    0x8(%rsp),%rdi
  4027c1:	f2 ae                	repnz scas %es:(%rdi),%al
  4027c3:	48 89 c8             	mov    %rcx,%rax
  4027c6:	48 f7 d0             	not    %rax
  4027c9:	49 8d 4c 00 ff       	lea    -0x1(%r8,%rax,1),%rcx
  4027ce:	48 8d 44 52 fd       	lea    -0x3(%rdx,%rdx,2),%rax
  4027d3:	48 8d 84 01 80 00 00 	lea    0x80(%rcx,%rax,1),%rax
  4027da:	00 
  4027db:	48 3d 00 20 00 00    	cmp    $0x2000,%rax
  4027e1:	76 72                	jbe    402855 <submitr+0x2a8>
  4027e3:	48 b8 45 72 72 6f 72 	movabs $0x52203a726f727245,%rax
  4027ea:	3a 20 52 
  4027ed:	48 89 03             	mov    %rax,(%rbx)
  4027f0:	48 b8 65 73 75 6c 74 	movabs $0x747320746c757365,%rax
  4027f7:	20 73 74 
  4027fa:	48 89 43 08          	mov    %rax,0x8(%rbx)
  4027fe:	48 b8 72 69 6e 67 20 	movabs $0x6f6f7420676e6972,%rax
  402805:	74 6f 6f 
  402808:	48 89 43 10          	mov    %rax,0x10(%rbx)
  40280c:	48 b8 20 6c 61 72 67 	movabs $0x202e656772616c20,%rax
  402813:	65 2e 20 
  402816:	48 89 43 18          	mov    %rax,0x18(%rbx)
  40281a:	48 b8 49 6e 63 72 65 	movabs $0x6573616572636e49,%rax
  402821:	61 73 65 
  402824:	48 89 43 20          	mov    %rax,0x20(%rbx)
  402828:	48 b8 20 53 55 42 4d 	movabs $0x5254494d42555320,%rax
  40282f:	49 54 52 
  402832:	48 89 43 28          	mov    %rax,0x28(%rbx)
  402836:	48 b8 5f 4d 41 58 42 	movabs $0x46554258414d5f,%rax
  40283d:	55 46 00 
  402840:	48 89 43 30          	mov    %rax,0x30(%rbx)
  402844:	89 ef                	mov    %ebp,%edi
  402846:	e8 e5 e4 ff ff       	callq  400d30 <close@plt>
  40284b:	b8 ff ff ff ff       	mov    $0xffffffff,%eax
  402850:	e9 9e 04 00 00       	jmpq   402cf3 <submitr+0x746>
  402855:	48 8d b4 24 40 40 00 	lea    0x4040(%rsp),%rsi
  40285c:	00 
  40285d:	b9 00 04 00 00       	mov    $0x400,%ecx
  402862:	b8 00 00 00 00       	mov    $0x0,%eax
  402867:	48 89 f7             	mov    %rsi,%rdi
  40286a:	f3 48 ab             	rep stos %rax,%es:(%rdi)
  40286d:	4c 89 ef             	mov    %r13,%rdi
  402870:	e8 2b fc ff ff       	callq  4024a0 <urlencode>
  402875:	85 c0                	test   %eax,%eax
  402877:	0f 89 8a 00 00 00    	jns    402907 <submitr+0x35a>
  40287d:	48 b8 45 72 72 6f 72 	movabs $0x52203a726f727245,%rax
  402884:	3a 20 52 
  402887:	48 89 03             	mov    %rax,(%rbx)
  40288a:	48 b8 65 73 75 6c 74 	movabs $0x747320746c757365,%rax
  402891:	20 73 74 
  402894:	48 89 43 08          	mov    %rax,0x8(%rbx)
  402898:	48 b8 72 69 6e 67 20 	movabs $0x6e6f6320676e6972,%rax
  40289f:	63 6f 6e 
  4028a2:	48 89 43 10          	mov    %rax,0x10(%rbx)
  4028a6:	48 b8 74 61 69 6e 73 	movabs $0x6e6120736e696174,%rax
  4028ad:	20 61 6e 
  4028b0:	48 89 43 18          	mov    %rax,0x18(%rbx)
  4028b4:	48 b8 20 69 6c 6c 65 	movabs $0x6c6167656c6c6920,%rax
  4028bb:	67 61 6c 
  4028be:	48 89 43 20          	mov    %rax,0x20(%rbx)
  4028c2:	48 b8 20 6f 72 20 75 	movabs $0x72706e7520726f20,%rax
  4028c9:	6e 70 72 
  4028cc:	48 89 43 28          	mov    %rax,0x28(%rbx)
  4028d0:	48 b8 69 6e 74 61 62 	movabs $0x20656c6261746e69,%rax
  4028d7:	6c 65 20 
  4028da:	48 89 43 30          	mov    %rax,0x30(%rbx)
  4028de:	48 b8 63 68 61 72 61 	movabs $0x6574636172616863,%rax
  4028e5:	63 74 65 
  4028e8:	48 89 43 38          	mov    %rax,0x38(%rbx)
  4028ec:	66 c7 43 40 72 2e    	movw   $0x2e72,0x40(%rbx)
  4028f2:	c6 43 42 00          	movb   $0x0,0x42(%rbx)
  4028f6:	89 ef                	mov    %ebp,%edi
  4028f8:	e8 33 e4 ff ff       	callq  400d30 <close@plt>
  4028fd:	b8 ff ff ff ff       	mov    $0xffffffff,%eax
  402902:	e9 ec 03 00 00       	jmpq   402cf3 <submitr+0x746>
  402907:	4c 8d ac 24 40 20 00 	lea    0x2040(%rsp),%r13
  40290e:	00 
  40290f:	41 54                	push   %r12
  402911:	48 8d 84 24 48 40 00 	lea    0x4048(%rsp),%rax
  402918:	00 
  402919:	50                   	push   %rax
  40291a:	4d 89 f9             	mov    %r15,%r9
  40291d:	4d 89 f0             	mov    %r14,%r8
  402920:	b9 c8 37 40 00       	mov    $0x4037c8,%ecx
  402925:	ba 00 20 00 00       	mov    $0x2000,%edx
  40292a:	be 01 00 00 00       	mov    $0x1,%esi
  40292f:	4c 89 ef             	mov    %r13,%rdi
  402932:	b8 00 00 00 00       	mov    $0x0,%eax
  402937:	e8 44 e5 ff ff       	callq  400e80 <__sprintf_chk@plt>
  40293c:	b8 00 00 00 00       	mov    $0x0,%eax
  402941:	48 c7 c1 ff ff ff ff 	mov    $0xffffffffffffffff,%rcx
  402948:	4c 89 ef             	mov    %r13,%rdi
  40294b:	f2 ae                	repnz scas %es:(%rdi),%al
  40294d:	48 f7 d1             	not    %rcx
  402950:	48 8d 51 ff          	lea    -0x1(%rcx),%rdx
  402954:	4c 89 ee             	mov    %r13,%rsi
  402957:	89 ef                	mov    %ebp,%edi
  402959:	e8 b1 f9 ff ff       	callq  40230f <rio_writen>
  40295e:	48 83 c4 10          	add    $0x10,%rsp
  402962:	48 85 c0             	test   %rax,%rax
  402965:	79 6e                	jns    4029d5 <submitr+0x428>
  402967:	48 b8 45 72 72 6f 72 	movabs $0x43203a726f727245,%rax
  40296e:	3a 20 43 
  402971:	48 89 03             	mov    %rax,(%rbx)
  402974:	48 b8 6c 69 65 6e 74 	movabs $0x6e7520746e65696c,%rax
  40297b:	20 75 6e 
  40297e:	48 89 43 08          	mov    %rax,0x8(%rbx)
  402982:	48 b8 61 62 6c 65 20 	movabs $0x206f7420656c6261,%rax
  402989:	74 6f 20 
  40298c:	48 89 43 10          	mov    %rax,0x10(%rbx)
  402990:	48 b8 77 72 69 74 65 	movabs $0x6f74206574697277,%rax
  402997:	20 74 6f 
  40299a:	48 89 43 18          	mov    %rax,0x18(%rbx)
  40299e:	48 b8 20 74 68 65 20 	movabs $0x7365722065687420,%rax
  4029a5:	72 65 73 
  4029a8:	48 89 43 20          	mov    %rax,0x20(%rbx)
  4029ac:	48 b8 75 6c 74 20 73 	movabs $0x7672657320746c75,%rax
  4029b3:	65 72 76 
  4029b6:	48 89 43 28          	mov    %rax,0x28(%rbx)
  4029ba:	66 c7 43 30 65 72    	movw   $0x7265,0x30(%rbx)
  4029c0:	c6 43 32 00          	movb   $0x0,0x32(%rbx)
  4029c4:	89 ef                	mov    %ebp,%edi
  4029c6:	e8 65 e3 ff ff       	callq  400d30 <close@plt>
  4029cb:	b8 ff ff ff ff       	mov    $0xffffffff,%eax
  4029d0:	e9 1e 03 00 00       	jmpq   402cf3 <submitr+0x746>
  4029d5:	89 ee                	mov    %ebp,%esi
  4029d7:	48 8d 7c 24 30       	lea    0x30(%rsp),%rdi
  4029dc:	e8 ee f8 ff ff       	callq  4022cf <rio_readinitb>
  4029e1:	ba 00 20 00 00       	mov    $0x2000,%edx
  4029e6:	48 8d b4 24 40 20 00 	lea    0x2040(%rsp),%rsi
  4029ed:	00 
  4029ee:	48 8d 7c 24 30       	lea    0x30(%rsp),%rdi
  4029f3:	e8 fe f9 ff ff       	callq  4023f6 <rio_readlineb>
  4029f8:	48 85 c0             	test   %rax,%rax
  4029fb:	7f 7d                	jg     402a7a <submitr+0x4cd>
  4029fd:	48 b8 45 72 72 6f 72 	movabs $0x43203a726f727245,%rax
  402a04:	3a 20 43 
  402a07:	48 89 03             	mov    %rax,(%rbx)
  402a0a:	48 b8 6c 69 65 6e 74 	movabs $0x6e7520746e65696c,%rax
  402a11:	20 75 6e 
  402a14:	48 89 43 08          	mov    %rax,0x8(%rbx)
  402a18:	48 b8 61 62 6c 65 20 	movabs $0x206f7420656c6261,%rax
  402a1f:	74 6f 20 
  402a22:	48 89 43 10          	mov    %rax,0x10(%rbx)
  402a26:	48 b8 72 65 61 64 20 	movabs $0x7269662064616572,%rax
  402a2d:	66 69 72 
  402a30:	48 89 43 18          	mov    %rax,0x18(%rbx)
  402a34:	48 b8 73 74 20 68 65 	movabs $0x6564616568207473,%rax
  402a3b:	61 64 65 
  402a3e:	48 89 43 20          	mov    %rax,0x20(%rbx)
  402a42:	48 b8 72 20 66 72 6f 	movabs $0x72206d6f72662072,%rax
  402a49:	6d 20 72 
  402a4c:	48 89 43 28          	mov    %rax,0x28(%rbx)
  402a50:	48 b8 65 73 75 6c 74 	movabs $0x657320746c757365,%rax
  402a57:	20 73 65 
  402a5a:	48 89 43 30          	mov    %rax,0x30(%rbx)
  402a5e:	c7 43 38 72 76 65 72 	movl   $0x72657672,0x38(%rbx)
  402a65:	c6 43 3c 00          	movb   $0x0,0x3c(%rbx)
  402a69:	89 ef                	mov    %ebp,%edi
  402a6b:	e8 c0 e2 ff ff       	callq  400d30 <close@plt>
  402a70:	b8 ff ff ff ff       	mov    $0xffffffff,%eax
  402a75:	e9 79 02 00 00       	jmpq   402cf3 <submitr+0x746>
  402a7a:	4c 8d 84 24 40 80 00 	lea    0x8040(%rsp),%r8
  402a81:	00 
  402a82:	48 8d 4c 24 1c       	lea    0x1c(%rsp),%rcx
  402a87:	48 8d 94 24 40 60 00 	lea    0x6040(%rsp),%rdx
  402a8e:	00 
  402a8f:	be 3f 38 40 00       	mov    $0x40383f,%esi
  402a94:	48 8d bc 24 40 20 00 	lea    0x2040(%rsp),%rdi
  402a9b:	00 
  402a9c:	b8 00 00 00 00       	mov    $0x0,%eax
  402aa1:	e8 3a e3 ff ff       	callq  400de0 <__isoc99_sscanf@plt>
  402aa6:	e9 95 00 00 00       	jmpq   402b40 <submitr+0x593>
  402aab:	ba 00 20 00 00       	mov    $0x2000,%edx
  402ab0:	48 8d b4 24 40 20 00 	lea    0x2040(%rsp),%rsi
  402ab7:	00 
  402ab8:	48 8d 7c 24 30       	lea    0x30(%rsp),%rdi
  402abd:	e8 34 f9 ff ff       	callq  4023f6 <rio_readlineb>
  402ac2:	48 85 c0             	test   %rax,%rax
  402ac5:	7f 79                	jg     402b40 <submitr+0x593>
  402ac7:	48 b8 45 72 72 6f 72 	movabs $0x43203a726f727245,%rax
  402ace:	3a 20 43 
  402ad1:	48 89 03             	mov    %rax,(%rbx)
  402ad4:	48 b8 6c 69 65 6e 74 	movabs $0x6e7520746e65696c,%rax
  402adb:	20 75 6e 
  402ade:	48 89 43 08          	mov    %rax,0x8(%rbx)
  402ae2:	48 b8 61 62 6c 65 20 	movabs $0x206f7420656c6261,%rax
  402ae9:	74 6f 20 
  402aec:	48 89 43 10          	mov    %rax,0x10(%rbx)
  402af0:	48 b8 72 65 61 64 20 	movabs $0x6165682064616572,%rax
  402af7:	68 65 61 
  402afa:	48 89 43 18          	mov    %rax,0x18(%rbx)
  402afe:	48 b8 64 65 72 73 20 	movabs $0x6f72662073726564,%rax
  402b05:	66 72 6f 
  402b08:	48 89 43 20          	mov    %rax,0x20(%rbx)
  402b0c:	48 b8 6d 20 74 68 65 	movabs $0x657220656874206d,%rax
  402b13:	20 72 65 
  402b16:	48 89 43 28          	mov    %rax,0x28(%rbx)
  402b1a:	48 b8 73 75 6c 74 20 	movabs $0x72657320746c7573,%rax
  402b21:	73 65 72 
  402b24:	48 89 43 30          	mov    %rax,0x30(%rbx)
  402b28:	c7 43 38 76 65 72 00 	movl   $0x726576,0x38(%rbx)
  402b2f:	89 ef                	mov    %ebp,%edi
  402b31:	e8 fa e1 ff ff       	callq  400d30 <close@plt>
  402b36:	b8 ff ff ff ff       	mov    $0xffffffff,%eax
  402b3b:	e9 b3 01 00 00       	jmpq   402cf3 <submitr+0x746>
  402b40:	0f b6 94 24 40 20 00 	movzbl 0x2040(%rsp),%edx
  402b47:	00 
  402b48:	b8 0d 00 00 00       	mov    $0xd,%eax
  402b4d:	29 d0                	sub    %edx,%eax
  402b4f:	75 1b                	jne    402b6c <submitr+0x5bf>
  402b51:	0f b6 94 24 41 20 00 	movzbl 0x2041(%rsp),%edx
  402b58:	00 
  402b59:	b8 0a 00 00 00       	mov    $0xa,%eax
  402b5e:	29 d0                	sub    %edx,%eax
  402b60:	75 0a                	jne    402b6c <submitr+0x5bf>
  402b62:	0f b6 84 24 42 20 00 	movzbl 0x2042(%rsp),%eax
  402b69:	00 
  402b6a:	f7 d8                	neg    %eax
  402b6c:	85 c0                	test   %eax,%eax
  402b6e:	0f 85 37 ff ff ff    	jne    402aab <submitr+0x4fe>
  402b74:	ba 00 20 00 00       	mov    $0x2000,%edx
  402b79:	48 8d b4 24 40 20 00 	lea    0x2040(%rsp),%rsi
  402b80:	00 
  402b81:	48 8d 7c 24 30       	lea    0x30(%rsp),%rdi
  402b86:	e8 6b f8 ff ff       	callq  4023f6 <rio_readlineb>
  402b8b:	48 85 c0             	test   %rax,%rax
  402b8e:	0f 8f 83 00 00 00    	jg     402c17 <submitr+0x66a>
  402b94:	48 b8 45 72 72 6f 72 	movabs $0x43203a726f727245,%rax
  402b9b:	3a 20 43 
  402b9e:	48 89 03             	mov    %rax,(%rbx)
  402ba1:	48 b8 6c 69 65 6e 74 	movabs $0x6e7520746e65696c,%rax
  402ba8:	20 75 6e 
  402bab:	48 89 43 08          	mov    %rax,0x8(%rbx)
  402baf:	48 b8 61 62 6c 65 20 	movabs $0x206f7420656c6261,%rax
  402bb6:	74 6f 20 
  402bb9:	48 89 43 10          	mov    %rax,0x10(%rbx)
  402bbd:	48 b8 72 65 61 64 20 	movabs $0x6174732064616572,%rax
  402bc4:	73 74 61 
  402bc7:	48 89 43 18          	mov    %rax,0x18(%rbx)
  402bcb:	48 b8 74 75 73 20 6d 	movabs $0x7373656d20737574,%rax
  402bd2:	65 73 73 
  402bd5:	48 89 43 20          	mov    %rax,0x20(%rbx)
  402bd9:	48 b8 61 67 65 20 66 	movabs $0x6d6f726620656761,%rax
  402be0:	72 6f 6d 
  402be3:	48 89 43 28          	mov    %rax,0x28(%rbx)
  402be7:	48 b8 20 72 65 73 75 	movabs $0x20746c7573657220,%rax
  402bee:	6c 74 20 
  402bf1:	48 89 43 30          	mov    %rax,0x30(%rbx)
  402bf5:	c7 43 38 73 65 72 76 	movl   $0x76726573,0x38(%rbx)
  402bfc:	66 c7 43 3c 65 72    	movw   $0x7265,0x3c(%rbx)
  402c02:	c6 43 3e 00          	movb   $0x0,0x3e(%rbx)
  402c06:	89 ef                	mov    %ebp,%edi
  402c08:	e8 23 e1 ff ff       	callq  400d30 <close@plt>
  402c0d:	b8 ff ff ff ff       	mov    $0xffffffff,%eax
  402c12:	e9 dc 00 00 00       	jmpq   402cf3 <submitr+0x746>
  402c17:	44 8b 44 24 1c       	mov    0x1c(%rsp),%r8d
  402c1c:	41 81 f8 c8 00 00 00 	cmp    $0xc8,%r8d
  402c23:	74 37                	je     402c5c <submitr+0x6af>
  402c25:	4c 8d 8c 24 40 80 00 	lea    0x8040(%rsp),%r9
  402c2c:	00 
  402c2d:	b9 08 38 40 00       	mov    $0x403808,%ecx
  402c32:	48 c7 c2 ff ff ff ff 	mov    $0xffffffffffffffff,%rdx
  402c39:	be 01 00 00 00       	mov    $0x1,%esi
  402c3e:	48 89 df             	mov    %rbx,%rdi
  402c41:	b8 00 00 00 00       	mov    $0x0,%eax
  402c46:	e8 35 e2 ff ff       	callq  400e80 <__sprintf_chk@plt>
  402c4b:	89 ef                	mov    %ebp,%edi
  402c4d:	e8 de e0 ff ff       	callq  400d30 <close@plt>
  402c52:	b8 ff ff ff ff       	mov    $0xffffffff,%eax
  402c57:	e9 97 00 00 00       	jmpq   402cf3 <submitr+0x746>
  402c5c:	48 8d b4 24 40 20 00 	lea    0x2040(%rsp),%rsi
  402c63:	00 
  402c64:	48 89 df             	mov    %rbx,%rdi
  402c67:	e8 54 e0 ff ff       	callq  400cc0 <strcpy@plt>
  402c6c:	89 ef                	mov    %ebp,%edi
  402c6e:	e8 bd e0 ff ff       	callq  400d30 <close@plt>
  402c73:	0f b6 03             	movzbl (%rbx),%eax
  402c76:	ba 4f 00 00 00       	mov    $0x4f,%edx
  402c7b:	29 c2                	sub    %eax,%edx
  402c7d:	75 22                	jne    402ca1 <submitr+0x6f4>
  402c7f:	0f b6 4b 01          	movzbl 0x1(%rbx),%ecx
  402c83:	b8 4b 00 00 00       	mov    $0x4b,%eax
  402c88:	29 c8                	sub    %ecx,%eax
  402c8a:	75 17                	jne    402ca3 <submitr+0x6f6>
  402c8c:	0f b6 4b 02          	movzbl 0x2(%rbx),%ecx
  402c90:	b8 0a 00 00 00       	mov    $0xa,%eax
  402c95:	29 c8                	sub    %ecx,%eax
  402c97:	75 0a                	jne    402ca3 <submitr+0x6f6>
  402c99:	0f b6 43 03          	movzbl 0x3(%rbx),%eax
  402c9d:	f7 d8                	neg    %eax
  402c9f:	eb 02                	jmp    402ca3 <submitr+0x6f6>
  402ca1:	89 d0                	mov    %edx,%eax
  402ca3:	85 c0                	test   %eax,%eax
  402ca5:	74 40                	je     402ce7 <submitr+0x73a>
  402ca7:	bf 50 38 40 00       	mov    $0x403850,%edi
  402cac:	b9 05 00 00 00       	mov    $0x5,%ecx
  402cb1:	48 89 de             	mov    %rbx,%rsi
  402cb4:	f3 a6                	repz cmpsb %es:(%rdi),%ds:(%rsi)
  402cb6:	0f 97 c0             	seta   %al
  402cb9:	0f 92 c1             	setb   %cl
  402cbc:	29 c8                	sub    %ecx,%eax
  402cbe:	0f be c0             	movsbl %al,%eax
  402cc1:	85 c0                	test   %eax,%eax
  402cc3:	74 2e                	je     402cf3 <submitr+0x746>
  402cc5:	85 d2                	test   %edx,%edx
  402cc7:	75 13                	jne    402cdc <submitr+0x72f>
  402cc9:	0f b6 43 01          	movzbl 0x1(%rbx),%eax
  402ccd:	ba 4b 00 00 00       	mov    $0x4b,%edx
  402cd2:	29 c2                	sub    %eax,%edx
  402cd4:	75 06                	jne    402cdc <submitr+0x72f>
  402cd6:	0f b6 53 02          	movzbl 0x2(%rbx),%edx
  402cda:	f7 da                	neg    %edx
  402cdc:	85 d2                	test   %edx,%edx
  402cde:	75 0e                	jne    402cee <submitr+0x741>
  402ce0:	b8 00 00 00 00       	mov    $0x0,%eax
  402ce5:	eb 0c                	jmp    402cf3 <submitr+0x746>
  402ce7:	b8 00 00 00 00       	mov    $0x0,%eax
  402cec:	eb 05                	jmp    402cf3 <submitr+0x746>
  402cee:	b8 ff ff ff ff       	mov    $0xffffffff,%eax
  402cf3:	48 8b 9c 24 48 a0 00 	mov    0xa048(%rsp),%rbx
  402cfa:	00 
  402cfb:	64 48 33 1c 25 28 00 	xor    %fs:0x28,%rbx
  402d02:	00 00 
  402d04:	74 05                	je     402d0b <submitr+0x75e>
  402d06:	e8 e5 df ff ff       	callq  400cf0 <__stack_chk_fail@plt>
  402d0b:	48 81 c4 58 a0 00 00 	add    $0xa058,%rsp
  402d12:	5b                   	pop    %rbx
  402d13:	5d                   	pop    %rbp
  402d14:	41 5c                	pop    %r12
  402d16:	41 5d                	pop    %r13
  402d18:	41 5e                	pop    %r14
  402d1a:	41 5f                	pop    %r15
  402d1c:	c3                   	retq   

0000000000402d1d <init_timeout>:
  402d1d:	85 ff                	test   %edi,%edi
  402d1f:	74 23                	je     402d44 <init_timeout+0x27>
  402d21:	53                   	push   %rbx
  402d22:	89 fb                	mov    %edi,%ebx
  402d24:	85 ff                	test   %edi,%edi
  402d26:	79 05                	jns    402d2d <init_timeout+0x10>
  402d28:	bb 00 00 00 00       	mov    $0x0,%ebx
  402d2d:	be e1 22 40 00       	mov    $0x4022e1,%esi
  402d32:	bf 0e 00 00 00       	mov    $0xe,%edi
  402d37:	e8 24 e0 ff ff       	callq  400d60 <signal@plt>
  402d3c:	89 df                	mov    %ebx,%edi
  402d3e:	e8 dd df ff ff       	callq  400d20 <alarm@plt>
  402d43:	5b                   	pop    %rbx
  402d44:	f3 c3                	repz retq 

0000000000402d46 <init_driver>:
  402d46:	55                   	push   %rbp
  402d47:	53                   	push   %rbx
  402d48:	48 83 ec 28          	sub    $0x28,%rsp
  402d4c:	48 89 fd             	mov    %rdi,%rbp
  402d4f:	64 48 8b 04 25 28 00 	mov    %fs:0x28,%rax
  402d56:	00 00 
  402d58:	48 89 44 24 18       	mov    %rax,0x18(%rsp)
  402d5d:	31 c0                	xor    %eax,%eax
  402d5f:	be 01 00 00 00       	mov    $0x1,%esi
  402d64:	bf 0d 00 00 00       	mov    $0xd,%edi
  402d69:	e8 f2 df ff ff       	callq  400d60 <signal@plt>
  402d6e:	be 01 00 00 00       	mov    $0x1,%esi
  402d73:	bf 1d 00 00 00       	mov    $0x1d,%edi
  402d78:	e8 e3 df ff ff       	callq  400d60 <signal@plt>
  402d7d:	be 01 00 00 00       	mov    $0x1,%esi
  402d82:	bf 1d 00 00 00       	mov    $0x1d,%edi
  402d87:	e8 d4 df ff ff       	callq  400d60 <signal@plt>
  402d8c:	ba 00 00 00 00       	mov    $0x0,%edx
  402d91:	be 01 00 00 00       	mov    $0x1,%esi
  402d96:	bf 02 00 00 00       	mov    $0x2,%edi
  402d9b:	e8 f0 e0 ff ff       	callq  400e90 <socket@plt>
  402da0:	85 c0                	test   %eax,%eax
  402da2:	79 4f                	jns    402df3 <init_driver+0xad>
  402da4:	48 b8 45 72 72 6f 72 	movabs $0x43203a726f727245,%rax
  402dab:	3a 20 43 
  402dae:	48 89 45 00          	mov    %rax,0x0(%rbp)
  402db2:	48 b8 6c 69 65 6e 74 	movabs $0x6e7520746e65696c,%rax
  402db9:	20 75 6e 
  402dbc:	48 89 45 08          	mov    %rax,0x8(%rbp)
  402dc0:	48 b8 61 62 6c 65 20 	movabs $0x206f7420656c6261,%rax
  402dc7:	74 6f 20 
  402dca:	48 89 45 10          	mov    %rax,0x10(%rbp)
  402dce:	48 b8 63 72 65 61 74 	movabs $0x7320657461657263,%rax
  402dd5:	65 20 73 
  402dd8:	48 89 45 18          	mov    %rax,0x18(%rbp)
  402ddc:	c7 45 20 6f 63 6b 65 	movl   $0x656b636f,0x20(%rbp)
  402de3:	66 c7 45 24 74 00    	movw   $0x74,0x24(%rbp)
  402de9:	b8 ff ff ff ff       	mov    $0xffffffff,%eax
  402dee:	e9 2a 01 00 00       	jmpq   402f1d <init_driver+0x1d7>
  402df3:	89 c3                	mov    %eax,%ebx
  402df5:	bf 55 38 40 00       	mov    $0x403855,%edi
  402dfa:	e8 71 df ff ff       	callq  400d70 <gethostbyname@plt>
  402dff:	48 85 c0             	test   %rax,%rax
  402e02:	75 68                	jne    402e6c <init_driver+0x126>
  402e04:	48 b8 45 72 72 6f 72 	movabs $0x44203a726f727245,%rax
  402e0b:	3a 20 44 
  402e0e:	48 89 45 00          	mov    %rax,0x0(%rbp)
  402e12:	48 b8 4e 53 20 69 73 	movabs $0x6e7520736920534e,%rax
  402e19:	20 75 6e 
  402e1c:	48 89 45 08          	mov    %rax,0x8(%rbp)
  402e20:	48 b8 61 62 6c 65 20 	movabs $0x206f7420656c6261,%rax
  402e27:	74 6f 20 
  402e2a:	48 89 45 10          	mov    %rax,0x10(%rbp)
  402e2e:	48 b8 72 65 73 6f 6c 	movabs $0x2065766c6f736572,%rax
  402e35:	76 65 20 
  402e38:	48 89 45 18          	mov    %rax,0x18(%rbp)
  402e3c:	48 b8 73 65 72 76 65 	movabs $0x6120726576726573,%rax
  402e43:	72 20 61 
  402e46:	48 89 45 20          	mov    %rax,0x20(%rbp)
  402e4a:	c7 45 28 64 64 72 65 	movl   $0x65726464,0x28(%rbp)
  402e51:	66 c7 45 2c 73 73    	movw   $0x7373,0x2c(%rbp)
  402e57:	c6 45 2e 00          	movb   $0x0,0x2e(%rbp)
  402e5b:	89 df                	mov    %ebx,%edi
  402e5d:	e8 ce de ff ff       	callq  400d30 <close@plt>
  402e62:	b8 ff ff ff ff       	mov    $0xffffffff,%eax
  402e67:	e9 b1 00 00 00       	jmpq   402f1d <init_driver+0x1d7>
  402e6c:	48 c7 04 24 00 00 00 	movq   $0x0,(%rsp)
  402e73:	00 
  402e74:	48 c7 44 24 08 00 00 	movq   $0x0,0x8(%rsp)
  402e7b:	00 00 
  402e7d:	66 c7 04 24 02 00    	movw   $0x2,(%rsp)
  402e83:	48 63 50 14          	movslq 0x14(%rax),%rdx
  402e87:	48 8b 40 18          	mov    0x18(%rax),%rax
  402e8b:	48 8b 30             	mov    (%rax),%rsi
  402e8e:	48 8d 7c 24 04       	lea    0x4(%rsp),%rdi
  402e93:	b9 0c 00 00 00       	mov    $0xc,%ecx
  402e98:	e8 e3 de ff ff       	callq  400d80 <__memmove_chk@plt>
  402e9d:	66 c7 44 24 02 3c 9a 	movw   $0x9a3c,0x2(%rsp)
  402ea4:	ba 10 00 00 00       	mov    $0x10,%edx
  402ea9:	48 89 e6             	mov    %rsp,%rsi
  402eac:	89 df                	mov    %ebx,%edi
  402eae:	e8 ad df ff ff       	callq  400e60 <connect@plt>
  402eb3:	85 c0                	test   %eax,%eax
  402eb5:	79 50                	jns    402f07 <init_driver+0x1c1>
  402eb7:	48 b8 45 72 72 6f 72 	movabs $0x55203a726f727245,%rax
  402ebe:	3a 20 55 
  402ec1:	48 89 45 00          	mov    %rax,0x0(%rbp)
  402ec5:	48 b8 6e 61 62 6c 65 	movabs $0x6f7420656c62616e,%rax
  402ecc:	20 74 6f 
  402ecf:	48 89 45 08          	mov    %rax,0x8(%rbp)
  402ed3:	48 b8 20 63 6f 6e 6e 	movabs $0x7463656e6e6f6320,%rax
  402eda:	65 63 74 
  402edd:	48 89 45 10          	mov    %rax,0x10(%rbp)
  402ee1:	48 b8 20 74 6f 20 73 	movabs $0x76726573206f7420,%rax
  402ee8:	65 72 76 
  402eeb:	48 89 45 18          	mov    %rax,0x18(%rbp)
  402eef:	66 c7 45 20 65 72    	movw   $0x7265,0x20(%rbp)
  402ef5:	c6 45 22 00          	movb   $0x0,0x22(%rbp)
  402ef9:	89 df                	mov    %ebx,%edi
  402efb:	e8 30 de ff ff       	callq  400d30 <close@plt>
  402f00:	b8 ff ff ff ff       	mov    $0xffffffff,%eax
  402f05:	eb 16                	jmp    402f1d <init_driver+0x1d7>
  402f07:	89 df                	mov    %ebx,%edi
  402f09:	e8 22 de ff ff       	callq  400d30 <close@plt>
  402f0e:	66 c7 45 00 4f 4b    	movw   $0x4b4f,0x0(%rbp)
  402f14:	c6 45 02 00          	movb   $0x0,0x2(%rbp)
  402f18:	b8 00 00 00 00       	mov    $0x0,%eax
  402f1d:	48 8b 4c 24 18       	mov    0x18(%rsp),%rcx
  402f22:	64 48 33 0c 25 28 00 	xor    %fs:0x28,%rcx
  402f29:	00 00 
  402f2b:	74 05                	je     402f32 <init_driver+0x1ec>
  402f2d:	e8 be dd ff ff       	callq  400cf0 <__stack_chk_fail@plt>
  402f32:	48 83 c4 28          	add    $0x28,%rsp
  402f36:	5b                   	pop    %rbx
  402f37:	5d                   	pop    %rbp
  402f38:	c3                   	retq   

0000000000402f39 <driver_post>:
  402f39:	53                   	push   %rbx
  402f3a:	4c 89 cb             	mov    %r9,%rbx
  402f3d:	45 85 c0             	test   %r8d,%r8d
  402f40:	74 27                	je     402f69 <driver_post+0x30>
  402f42:	48 89 ca             	mov    %rcx,%rdx
  402f45:	be 69 38 40 00       	mov    $0x403869,%esi
  402f4a:	bf 01 00 00 00       	mov    $0x1,%edi
  402f4f:	b8 00 00 00 00       	mov    $0x0,%eax
  402f54:	e8 a7 de ff ff       	callq  400e00 <__printf_chk@plt>
  402f59:	66 c7 03 4f 4b       	movw   $0x4b4f,(%rbx)
  402f5e:	c6 43 02 00          	movb   $0x0,0x2(%rbx)
  402f62:	b8 00 00 00 00       	mov    $0x0,%eax
  402f67:	eb 3f                	jmp    402fa8 <driver_post+0x6f>
  402f69:	48 85 ff             	test   %rdi,%rdi
  402f6c:	74 2c                	je     402f9a <driver_post+0x61>
  402f6e:	80 3f 00             	cmpb   $0x0,(%rdi)
  402f71:	74 27                	je     402f9a <driver_post+0x61>
  402f73:	48 83 ec 08          	sub    $0x8,%rsp
  402f77:	41 51                	push   %r9
  402f79:	49 89 c9             	mov    %rcx,%r9
  402f7c:	49 89 d0             	mov    %rdx,%r8
  402f7f:	48 89 f9             	mov    %rdi,%rcx
  402f82:	48 89 f2             	mov    %rsi,%rdx
  402f85:	be 9a 3c 00 00       	mov    $0x3c9a,%esi
  402f8a:	bf 55 38 40 00       	mov    $0x403855,%edi
  402f8f:	e8 19 f6 ff ff       	callq  4025ad <submitr>
  402f94:	48 83 c4 10          	add    $0x10,%rsp
  402f98:	eb 0e                	jmp    402fa8 <driver_post+0x6f>
  402f9a:	66 c7 03 4f 4b       	movw   $0x4b4f,(%rbx)
  402f9f:	c6 43 02 00          	movb   $0x0,0x2(%rbx)
  402fa3:	b8 00 00 00 00       	mov    $0x0,%eax
  402fa8:	5b                   	pop    %rbx
  402fa9:	c3                   	retq   

0000000000402faa <check>:
  402faa:	89 f8                	mov    %edi,%eax
  402fac:	c1 e8 1c             	shr    $0x1c,%eax
  402faf:	85 c0                	test   %eax,%eax
  402fb1:	74 1d                	je     402fd0 <check+0x26>
  402fb3:	b9 00 00 00 00       	mov    $0x0,%ecx
  402fb8:	eb 0b                	jmp    402fc5 <check+0x1b>
  402fba:	89 f8                	mov    %edi,%eax
  402fbc:	d3 e8                	shr    %cl,%eax
  402fbe:	3c 0a                	cmp    $0xa,%al
  402fc0:	74 14                	je     402fd6 <check+0x2c>
  402fc2:	83 c1 08             	add    $0x8,%ecx
  402fc5:	83 f9 1f             	cmp    $0x1f,%ecx
  402fc8:	7e f0                	jle    402fba <check+0x10>
  402fca:	b8 01 00 00 00       	mov    $0x1,%eax
  402fcf:	c3                   	retq   
  402fd0:	b8 00 00 00 00       	mov    $0x0,%eax
  402fd5:	c3                   	retq   
  402fd6:	b8 00 00 00 00       	mov    $0x0,%eax
  402fdb:	c3                   	retq   

0000000000402fdc <gencookie>:
  402fdc:	53                   	push   %rbx
  402fdd:	83 c7 01             	add    $0x1,%edi
  402fe0:	e8 bb dc ff ff       	callq  400ca0 <srandom@plt>
  402fe5:	e8 d6 dd ff ff       	callq  400dc0 <random@plt>
  402fea:	89 c3                	mov    %eax,%ebx
  402fec:	89 c7                	mov    %eax,%edi
  402fee:	e8 b7 ff ff ff       	callq  402faa <check>
  402ff3:	85 c0                	test   %eax,%eax
  402ff5:	74 ee                	je     402fe5 <gencookie+0x9>
  402ff7:	89 d8                	mov    %ebx,%eax
  402ff9:	5b                   	pop    %rbx
  402ffa:	c3                   	retq   
  402ffb:	0f 1f 44 00 00       	nopl   0x0(%rax,%rax,1)

0000000000403000 <__libc_csu_init>:
  403000:	41 57                	push   %r15
  403002:	41 56                	push   %r14
  403004:	41 89 ff             	mov    %edi,%r15d
  403007:	41 55                	push   %r13
  403009:	41 54                	push   %r12
  40300b:	4c 8d 25 fe 1d 20 00 	lea    0x201dfe(%rip),%r12        # 604e10 <__frame_dummy_init_array_entry>
  403012:	55                   	push   %rbp
  403013:	48 8d 2d fe 1d 20 00 	lea    0x201dfe(%rip),%rbp        # 604e18 <__init_array_end>
  40301a:	53                   	push   %rbx
  40301b:	49 89 f6             	mov    %rsi,%r14
  40301e:	49 89 d5             	mov    %rdx,%r13
  403021:	4c 29 e5             	sub    %r12,%rbp
  403024:	48 83 ec 08          	sub    $0x8,%rsp
  403028:	48 c1 fd 03          	sar    $0x3,%rbp
  40302c:	e8 17 dc ff ff       	callq  400c48 <_init>
  403031:	48 85 ed             	test   %rbp,%rbp
  403034:	74 20                	je     403056 <__libc_csu_init+0x56>
  403036:	31 db                	xor    %ebx,%ebx
  403038:	0f 1f 84 00 00 00 00 	nopl   0x0(%rax,%rax,1)
  40303f:	00 
  403040:	4c 89 ea             	mov    %r13,%rdx
  403043:	4c 89 f6             	mov    %r14,%rsi
  403046:	44 89 ff             	mov    %r15d,%edi
  403049:	41 ff 14 dc          	callq  *(%r12,%rbx,8)
  40304d:	48 83 c3 01          	add    $0x1,%rbx
  403051:	48 39 eb             	cmp    %rbp,%rbx
  403054:	75 ea                	jne    403040 <__libc_csu_init+0x40>
  403056:	48 83 c4 08          	add    $0x8,%rsp
  40305a:	5b                   	pop    %rbx
  40305b:	5d                   	pop    %rbp
  40305c:	41 5c                	pop    %r12
  40305e:	41 5d                	pop    %r13
  403060:	41 5e                	pop    %r14
  403062:	41 5f                	pop    %r15
  403064:	c3                   	retq   
  403065:	90                   	nop
  403066:	66 2e 0f 1f 84 00 00 	nopw   %cs:0x0(%rax,%rax,1)
  40306d:	00 00 00 

0000000000403070 <__libc_csu_fini>:
  403070:	f3 c3                	repz retq 

Disassembly of section .fini:

0000000000403074 <_fini>:
  403074:	48 83 ec 08          	sub    $0x8,%rsp
  403078:	48 83 c4 08          	add    $0x8,%rsp
  40307c:	c3                   	retq   
